
LEA_Reference.elf:     file format elf32-avr

Sections:
Idx Name          Size      VMA       LMA       File off  Algn
  0 .text         00002d7a  00000000  00000000  00000094  2**1
                  CONTENTS, ALLOC, LOAD, READONLY, CODE
  1 .data         00000030  00802000  00002d7a  00002e0e  2**0
                  CONTENTS, ALLOC, LOAD, DATA
  2 .bss          00000180  00802030  00802030  00002e3e  2**0
                  ALLOC
  3 .comment      00000030  00000000  00000000  00002e3e  2**0
                  CONTENTS, READONLY
  4 .debug_aranges 00000080  00000000  00000000  00002e70  2**3
                  CONTENTS, READONLY, DEBUGGING
  5 .debug_info   0000036a  00000000  00000000  00002ef0  2**0
                  CONTENTS, READONLY, DEBUGGING
  6 .debug_abbrev 00000154  00000000  00000000  0000325a  2**0
                  CONTENTS, READONLY, DEBUGGING
  7 .debug_line   00008816  00000000  00000000  000033ae  2**0
                  CONTENTS, READONLY, DEBUGGING
  8 .debug_frame  00000048  00000000  00000000  0000bbc4  2**2
                  CONTENTS, READONLY, DEBUGGING
  9 .debug_str    0001d58a  00000000  00000000  0000bc0c  2**0
                  CONTENTS, READONLY, DEBUGGING
 10 .debug_ranges 00000020  00000000  00000000  00029196  2**0
                  CONTENTS, READONLY, DEBUGGING
 11 .debug_macro  00007151  00000000  00000000  000291b6  2**0
                  CONTENTS, READONLY, DEBUGGING

Disassembly of section .text:

00000000 <__vectors>:
       0:	f9 c0       	rjmp	.+498    	; 0x1f4 <__ctors_end>
       2:	00 00       	nop
       4:	1d c1       	rjmp	.+570    	; 0x240 <__bad_interrupt>
       6:	00 00       	nop
       8:	1b c1       	rjmp	.+566    	; 0x240 <__bad_interrupt>
       a:	00 00       	nop
       c:	19 c1       	rjmp	.+562    	; 0x240 <__bad_interrupt>
       e:	00 00       	nop
      10:	17 c1       	rjmp	.+558    	; 0x240 <__bad_interrupt>
      12:	00 00       	nop
      14:	15 c1       	rjmp	.+554    	; 0x240 <__bad_interrupt>
      16:	00 00       	nop
      18:	13 c1       	rjmp	.+550    	; 0x240 <__bad_interrupt>
      1a:	00 00       	nop
      1c:	11 c1       	rjmp	.+546    	; 0x240 <__bad_interrupt>
      1e:	00 00       	nop
      20:	0f c1       	rjmp	.+542    	; 0x240 <__bad_interrupt>
      22:	00 00       	nop
      24:	0d c1       	rjmp	.+538    	; 0x240 <__bad_interrupt>
      26:	00 00       	nop
      28:	0b c1       	rjmp	.+534    	; 0x240 <__bad_interrupt>
      2a:	00 00       	nop
      2c:	09 c1       	rjmp	.+530    	; 0x240 <__bad_interrupt>
      2e:	00 00       	nop
      30:	07 c1       	rjmp	.+526    	; 0x240 <__bad_interrupt>
      32:	00 00       	nop
      34:	05 c1       	rjmp	.+522    	; 0x240 <__bad_interrupt>
      36:	00 00       	nop
      38:	03 c1       	rjmp	.+518    	; 0x240 <__bad_interrupt>
      3a:	00 00       	nop
      3c:	01 c1       	rjmp	.+514    	; 0x240 <__bad_interrupt>
      3e:	00 00       	nop
      40:	ff c0       	rjmp	.+510    	; 0x240 <__bad_interrupt>
      42:	00 00       	nop
      44:	fd c0       	rjmp	.+506    	; 0x240 <__bad_interrupt>
      46:	00 00       	nop
      48:	fb c0       	rjmp	.+502    	; 0x240 <__bad_interrupt>
      4a:	00 00       	nop
      4c:	f9 c0       	rjmp	.+498    	; 0x240 <__bad_interrupt>
      4e:	00 00       	nop
      50:	f7 c0       	rjmp	.+494    	; 0x240 <__bad_interrupt>
      52:	00 00       	nop
      54:	f5 c0       	rjmp	.+490    	; 0x240 <__bad_interrupt>
      56:	00 00       	nop
      58:	f3 c0       	rjmp	.+486    	; 0x240 <__bad_interrupt>
      5a:	00 00       	nop
      5c:	f1 c0       	rjmp	.+482    	; 0x240 <__bad_interrupt>
      5e:	00 00       	nop
      60:	ef c0       	rjmp	.+478    	; 0x240 <__bad_interrupt>
      62:	00 00       	nop
      64:	ed c0       	rjmp	.+474    	; 0x240 <__bad_interrupt>
      66:	00 00       	nop
      68:	eb c0       	rjmp	.+470    	; 0x240 <__bad_interrupt>
      6a:	00 00       	nop
      6c:	e9 c0       	rjmp	.+466    	; 0x240 <__bad_interrupt>
      6e:	00 00       	nop
      70:	e7 c0       	rjmp	.+462    	; 0x240 <__bad_interrupt>
      72:	00 00       	nop
      74:	e5 c0       	rjmp	.+458    	; 0x240 <__bad_interrupt>
      76:	00 00       	nop
      78:	e3 c0       	rjmp	.+454    	; 0x240 <__bad_interrupt>
      7a:	00 00       	nop
      7c:	e1 c0       	rjmp	.+450    	; 0x240 <__bad_interrupt>
      7e:	00 00       	nop
      80:	df c0       	rjmp	.+446    	; 0x240 <__bad_interrupt>
      82:	00 00       	nop
      84:	dd c0       	rjmp	.+442    	; 0x240 <__bad_interrupt>
      86:	00 00       	nop
      88:	db c0       	rjmp	.+438    	; 0x240 <__bad_interrupt>
      8a:	00 00       	nop
      8c:	d9 c0       	rjmp	.+434    	; 0x240 <__bad_interrupt>
      8e:	00 00       	nop
      90:	d7 c0       	rjmp	.+430    	; 0x240 <__bad_interrupt>
      92:	00 00       	nop
      94:	d5 c0       	rjmp	.+426    	; 0x240 <__bad_interrupt>
      96:	00 00       	nop
      98:	d3 c0       	rjmp	.+422    	; 0x240 <__bad_interrupt>
      9a:	00 00       	nop
      9c:	d1 c0       	rjmp	.+418    	; 0x240 <__bad_interrupt>
      9e:	00 00       	nop
      a0:	cf c0       	rjmp	.+414    	; 0x240 <__bad_interrupt>
      a2:	00 00       	nop
      a4:	cd c0       	rjmp	.+410    	; 0x240 <__bad_interrupt>
      a6:	00 00       	nop
      a8:	cb c0       	rjmp	.+406    	; 0x240 <__bad_interrupt>
      aa:	00 00       	nop
      ac:	c9 c0       	rjmp	.+402    	; 0x240 <__bad_interrupt>
      ae:	00 00       	nop
      b0:	c7 c0       	rjmp	.+398    	; 0x240 <__bad_interrupt>
      b2:	00 00       	nop
      b4:	c5 c0       	rjmp	.+394    	; 0x240 <__bad_interrupt>
      b6:	00 00       	nop
      b8:	c3 c0       	rjmp	.+390    	; 0x240 <__bad_interrupt>
      ba:	00 00       	nop
      bc:	c1 c0       	rjmp	.+386    	; 0x240 <__bad_interrupt>
      be:	00 00       	nop
      c0:	bf c0       	rjmp	.+382    	; 0x240 <__bad_interrupt>
      c2:	00 00       	nop
      c4:	bd c0       	rjmp	.+378    	; 0x240 <__bad_interrupt>
      c6:	00 00       	nop
      c8:	bb c0       	rjmp	.+374    	; 0x240 <__bad_interrupt>
      ca:	00 00       	nop
      cc:	b9 c0       	rjmp	.+370    	; 0x240 <__bad_interrupt>
      ce:	00 00       	nop
      d0:	b7 c0       	rjmp	.+366    	; 0x240 <__bad_interrupt>
      d2:	00 00       	nop
      d4:	b5 c0       	rjmp	.+362    	; 0x240 <__bad_interrupt>
      d6:	00 00       	nop
      d8:	b3 c0       	rjmp	.+358    	; 0x240 <__bad_interrupt>
      da:	00 00       	nop
      dc:	b1 c0       	rjmp	.+354    	; 0x240 <__bad_interrupt>
      de:	00 00       	nop
      e0:	af c0       	rjmp	.+350    	; 0x240 <__bad_interrupt>
      e2:	00 00       	nop
      e4:	ad c0       	rjmp	.+346    	; 0x240 <__bad_interrupt>
      e6:	00 00       	nop
      e8:	ab c0       	rjmp	.+342    	; 0x240 <__bad_interrupt>
      ea:	00 00       	nop
      ec:	a9 c0       	rjmp	.+338    	; 0x240 <__bad_interrupt>
      ee:	00 00       	nop
      f0:	a7 c0       	rjmp	.+334    	; 0x240 <__bad_interrupt>
      f2:	00 00       	nop
      f4:	a5 c0       	rjmp	.+330    	; 0x240 <__bad_interrupt>
      f6:	00 00       	nop
      f8:	a3 c0       	rjmp	.+326    	; 0x240 <__bad_interrupt>
      fa:	00 00       	nop
      fc:	a1 c0       	rjmp	.+322    	; 0x240 <__bad_interrupt>
      fe:	00 00       	nop
     100:	9f c0       	rjmp	.+318    	; 0x240 <__bad_interrupt>
     102:	00 00       	nop
     104:	9d c0       	rjmp	.+314    	; 0x240 <__bad_interrupt>
     106:	00 00       	nop
     108:	9b c0       	rjmp	.+310    	; 0x240 <__bad_interrupt>
     10a:	00 00       	nop
     10c:	99 c0       	rjmp	.+306    	; 0x240 <__bad_interrupt>
     10e:	00 00       	nop
     110:	97 c0       	rjmp	.+302    	; 0x240 <__bad_interrupt>
     112:	00 00       	nop
     114:	95 c0       	rjmp	.+298    	; 0x240 <__bad_interrupt>
     116:	00 00       	nop
     118:	93 c0       	rjmp	.+294    	; 0x240 <__bad_interrupt>
     11a:	00 00       	nop
     11c:	91 c0       	rjmp	.+290    	; 0x240 <__bad_interrupt>
     11e:	00 00       	nop
     120:	8f c0       	rjmp	.+286    	; 0x240 <__bad_interrupt>
     122:	00 00       	nop
     124:	8d c0       	rjmp	.+282    	; 0x240 <__bad_interrupt>
     126:	00 00       	nop
     128:	8b c0       	rjmp	.+278    	; 0x240 <__bad_interrupt>
     12a:	00 00       	nop
     12c:	89 c0       	rjmp	.+274    	; 0x240 <__bad_interrupt>
     12e:	00 00       	nop
     130:	87 c0       	rjmp	.+270    	; 0x240 <__bad_interrupt>
     132:	00 00       	nop
     134:	85 c0       	rjmp	.+266    	; 0x240 <__bad_interrupt>
     136:	00 00       	nop
     138:	83 c0       	rjmp	.+262    	; 0x240 <__bad_interrupt>
     13a:	00 00       	nop
     13c:	81 c0       	rjmp	.+258    	; 0x240 <__bad_interrupt>
     13e:	00 00       	nop
     140:	7f c0       	rjmp	.+254    	; 0x240 <__bad_interrupt>
     142:	00 00       	nop
     144:	7d c0       	rjmp	.+250    	; 0x240 <__bad_interrupt>
     146:	00 00       	nop
     148:	7b c0       	rjmp	.+246    	; 0x240 <__bad_interrupt>
     14a:	00 00       	nop
     14c:	79 c0       	rjmp	.+242    	; 0x240 <__bad_interrupt>
     14e:	00 00       	nop
     150:	77 c0       	rjmp	.+238    	; 0x240 <__bad_interrupt>
     152:	00 00       	nop
     154:	75 c0       	rjmp	.+234    	; 0x240 <__bad_interrupt>
     156:	00 00       	nop
     158:	73 c0       	rjmp	.+230    	; 0x240 <__bad_interrupt>
     15a:	00 00       	nop
     15c:	71 c0       	rjmp	.+226    	; 0x240 <__bad_interrupt>
     15e:	00 00       	nop
     160:	6f c0       	rjmp	.+222    	; 0x240 <__bad_interrupt>
     162:	00 00       	nop
     164:	6d c0       	rjmp	.+218    	; 0x240 <__bad_interrupt>
     166:	00 00       	nop
     168:	6b c0       	rjmp	.+214    	; 0x240 <__bad_interrupt>
     16a:	00 00       	nop
     16c:	69 c0       	rjmp	.+210    	; 0x240 <__bad_interrupt>
     16e:	00 00       	nop
     170:	67 c0       	rjmp	.+206    	; 0x240 <__bad_interrupt>
     172:	00 00       	nop
     174:	65 c0       	rjmp	.+202    	; 0x240 <__bad_interrupt>
     176:	00 00       	nop
     178:	63 c0       	rjmp	.+198    	; 0x240 <__bad_interrupt>
     17a:	00 00       	nop
     17c:	61 c0       	rjmp	.+194    	; 0x240 <__bad_interrupt>
     17e:	00 00       	nop
     180:	5f c0       	rjmp	.+190    	; 0x240 <__bad_interrupt>
     182:	00 00       	nop
     184:	5d c0       	rjmp	.+186    	; 0x240 <__bad_interrupt>
     186:	00 00       	nop
     188:	5b c0       	rjmp	.+182    	; 0x240 <__bad_interrupt>
     18a:	00 00       	nop
     18c:	59 c0       	rjmp	.+178    	; 0x240 <__bad_interrupt>
     18e:	00 00       	nop
     190:	57 c0       	rjmp	.+174    	; 0x240 <__bad_interrupt>
     192:	00 00       	nop
     194:	55 c0       	rjmp	.+170    	; 0x240 <__bad_interrupt>
     196:	00 00       	nop
     198:	53 c0       	rjmp	.+166    	; 0x240 <__bad_interrupt>
     19a:	00 00       	nop
     19c:	51 c0       	rjmp	.+162    	; 0x240 <__bad_interrupt>
     19e:	00 00       	nop
     1a0:	4f c0       	rjmp	.+158    	; 0x240 <__bad_interrupt>
     1a2:	00 00       	nop
     1a4:	4d c0       	rjmp	.+154    	; 0x240 <__bad_interrupt>
     1a6:	00 00       	nop
     1a8:	4b c0       	rjmp	.+150    	; 0x240 <__bad_interrupt>
     1aa:	00 00       	nop
     1ac:	49 c0       	rjmp	.+146    	; 0x240 <__bad_interrupt>
     1ae:	00 00       	nop
     1b0:	47 c0       	rjmp	.+142    	; 0x240 <__bad_interrupt>
     1b2:	00 00       	nop
     1b4:	45 c0       	rjmp	.+138    	; 0x240 <__bad_interrupt>
     1b6:	00 00       	nop
     1b8:	43 c0       	rjmp	.+134    	; 0x240 <__bad_interrupt>
     1ba:	00 00       	nop
     1bc:	41 c0       	rjmp	.+130    	; 0x240 <__bad_interrupt>
     1be:	00 00       	nop
     1c0:	3f c0       	rjmp	.+126    	; 0x240 <__bad_interrupt>
     1c2:	00 00       	nop
     1c4:	3d c0       	rjmp	.+122    	; 0x240 <__bad_interrupt>
     1c6:	00 00       	nop
     1c8:	3b c0       	rjmp	.+118    	; 0x240 <__bad_interrupt>
     1ca:	00 00       	nop
     1cc:	39 c0       	rjmp	.+114    	; 0x240 <__bad_interrupt>
     1ce:	00 00       	nop
     1d0:	37 c0       	rjmp	.+110    	; 0x240 <__bad_interrupt>
     1d2:	00 00       	nop
     1d4:	35 c0       	rjmp	.+106    	; 0x240 <__bad_interrupt>
     1d6:	00 00       	nop
     1d8:	33 c0       	rjmp	.+102    	; 0x240 <__bad_interrupt>
     1da:	00 00       	nop
     1dc:	31 c0       	rjmp	.+98     	; 0x240 <__bad_interrupt>
     1de:	00 00       	nop
     1e0:	2f c0       	rjmp	.+94     	; 0x240 <__bad_interrupt>
     1e2:	00 00       	nop
     1e4:	2d c0       	rjmp	.+90     	; 0x240 <__bad_interrupt>
     1e6:	00 00       	nop
     1e8:	2b c0       	rjmp	.+86     	; 0x240 <__bad_interrupt>
     1ea:	00 00       	nop
     1ec:	29 c0       	rjmp	.+82     	; 0x240 <__bad_interrupt>
     1ee:	00 00       	nop
     1f0:	27 c0       	rjmp	.+78     	; 0x240 <__bad_interrupt>
	...

000001f4 <__ctors_end>:
     1f4:	11 24       	eor	r1, r1
     1f6:	1f be       	out	0x3f, r1	; 63
     1f8:	cf ef       	ldi	r28, 0xFF	; 255
     1fa:	cd bf       	out	0x3d, r28	; 61
     1fc:	df e3       	ldi	r29, 0x3F	; 63
     1fe:	de bf       	out	0x3e, r29	; 62
     200:	00 e0       	ldi	r16, 0x00	; 0
     202:	0c bf       	out	0x3c, r16	; 60
     204:	18 be       	out	0x38, r1	; 56
     206:	19 be       	out	0x39, r1	; 57
     208:	1a be       	out	0x3a, r1	; 58
     20a:	1b be       	out	0x3b, r1	; 59

0000020c <__do_copy_data>:
     20c:	10 e2       	ldi	r17, 0x20	; 32
     20e:	a0 e0       	ldi	r26, 0x00	; 0
     210:	b0 e2       	ldi	r27, 0x20	; 32
     212:	ea e7       	ldi	r30, 0x7A	; 122
     214:	fd e2       	ldi	r31, 0x2D	; 45
     216:	00 e0       	ldi	r16, 0x00	; 0
     218:	0b bf       	out	0x3b, r16	; 59
     21a:	02 c0       	rjmp	.+4      	; 0x220 <__do_copy_data+0x14>
     21c:	07 90       	elpm	r0, Z+
     21e:	0d 92       	st	X+, r0
     220:	a0 33       	cpi	r26, 0x30	; 48
     222:	b1 07       	cpc	r27, r17
     224:	d9 f7       	brne	.-10     	; 0x21c <__do_copy_data+0x10>
     226:	1b be       	out	0x3b, r1	; 59

00000228 <__do_clear_bss>:
     228:	21 e2       	ldi	r18, 0x21	; 33
     22a:	a0 e3       	ldi	r26, 0x30	; 48
     22c:	b0 e2       	ldi	r27, 0x20	; 32
     22e:	01 c0       	rjmp	.+2      	; 0x232 <.do_clear_bss_start>

00000230 <.do_clear_bss_loop>:
     230:	1d 92       	st	X+, r1

00000232 <.do_clear_bss_start>:
     232:	a0 3b       	cpi	r26, 0xB0	; 176
     234:	b2 07       	cpc	r27, r18
     236:	e1 f7       	brne	.-8      	; 0x230 <.do_clear_bss_loop>
     238:	0e 94 a8 16 	call	0x2d50	; 0x2d50 <main>
     23c:	0c 94 bb 16 	jmp	0x2d76	; 0x2d76 <_exit>

00000240 <__bad_interrupt>:
     240:	df ce       	rjmp	.-578    	; 0x0 <__vectors>

00000242 <LEA_EncryptBlk>:
     242:	2f 92       	push	r2
     244:	3f 92       	push	r3
     246:	4f 92       	push	r4
     248:	5f 92       	push	r5
     24a:	6f 92       	push	r6
     24c:	7f 92       	push	r7
     24e:	8f 92       	push	r8
     250:	9f 92       	push	r9
     252:	af 92       	push	r10
     254:	bf 92       	push	r11
     256:	cf 92       	push	r12
     258:	df 92       	push	r13
     25a:	ef 92       	push	r14
     25c:	ff 92       	push	r15
     25e:	0f 93       	push	r16
     260:	1f 93       	push	r17
     262:	cf 93       	push	r28
     264:	df 93       	push	r29
     266:	fb 01       	movw	r30, r22
     268:	ec 01       	movw	r28, r24
     26a:	08 80       	ld	r0, Y
     26c:	19 80       	ldd	r1, Y+1	; 0x01
     26e:	2a 80       	ldd	r2, Y+2	; 0x02
     270:	3b 80       	ldd	r3, Y+3	; 0x03
     272:	4c 80       	ldd	r4, Y+4	; 0x04
     274:	5d 80       	ldd	r5, Y+5	; 0x05
     276:	6e 80       	ldd	r6, Y+6	; 0x06
     278:	7f 80       	ldd	r7, Y+7	; 0x07
     27a:	88 84       	ldd	r8, Y+8	; 0x08
     27c:	99 84       	ldd	r9, Y+9	; 0x09
     27e:	aa 84       	ldd	r10, Y+10	; 0x0a
     280:	bb 84       	ldd	r11, Y+11	; 0x0b
     282:	cc 84       	ldd	r12, Y+12	; 0x0c
     284:	dd 84       	ldd	r13, Y+13	; 0x0d
     286:	ee 84       	ldd	r14, Y+14	; 0x0e
     288:	ff 84       	ldd	r15, Y+15	; 0x0f
     28a:	01 91       	ld	r16, Z+
     28c:	11 91       	ld	r17, Z+
     28e:	21 91       	ld	r18, Z+
     290:	31 91       	ld	r19, Z+
     292:	c0 26       	eor	r12, r16
     294:	d1 26       	eor	r13, r17
     296:	e2 26       	eor	r14, r18
     298:	f3 26       	eor	r15, r19
     29a:	41 91       	ld	r20, Z+
     29c:	51 91       	ld	r21, Z+
     29e:	61 91       	ld	r22, Z+
     2a0:	71 91       	ld	r23, Z+
     2a2:	48 25       	eor	r20, r8
     2a4:	59 25       	eor	r21, r9
     2a6:	6a 25       	eor	r22, r10
     2a8:	7b 25       	eor	r23, r11
     2aa:	c4 0e       	add	r12, r20
     2ac:	d5 1e       	adc	r13, r21
     2ae:	e6 1e       	adc	r14, r22
     2b0:	f7 1e       	adc	r15, r23
     2b2:	44 27       	eor	r20, r20
     2b4:	f6 94       	lsr	r15
     2b6:	e7 94       	ror	r14
     2b8:	d7 94       	ror	r13
     2ba:	c7 94       	ror	r12
     2bc:	47 95       	ror	r20
     2be:	f6 94       	lsr	r15
     2c0:	e7 94       	ror	r14
     2c2:	d7 94       	ror	r13
     2c4:	c7 94       	ror	r12
     2c6:	47 95       	ror	r20
     2c8:	f6 94       	lsr	r15
     2ca:	e7 94       	ror	r14
     2cc:	d7 94       	ror	r13
     2ce:	c7 94       	ror	r12
     2d0:	47 95       	ror	r20
     2d2:	f4 26       	eor	r15, r20
     2d4:	80 26       	eor	r8, r16
     2d6:	91 26       	eor	r9, r17
     2d8:	a2 26       	eor	r10, r18
     2da:	b3 26       	eor	r11, r19
     2dc:	41 91       	ld	r20, Z+
     2de:	51 91       	ld	r21, Z+
     2e0:	61 91       	ld	r22, Z+
     2e2:	71 91       	ld	r23, Z+
     2e4:	44 25       	eor	r20, r4
     2e6:	55 25       	eor	r21, r5
     2e8:	66 25       	eor	r22, r6
     2ea:	77 25       	eor	r23, r7
     2ec:	84 0e       	add	r8, r20
     2ee:	95 1e       	adc	r9, r21
     2f0:	a6 1e       	adc	r10, r22
     2f2:	b7 1e       	adc	r11, r23
     2f4:	44 27       	eor	r20, r20
     2f6:	88 0c       	add	r8, r8
     2f8:	99 1c       	adc	r9, r9
     2fa:	aa 1c       	adc	r10, r10
     2fc:	bb 1c       	adc	r11, r11
     2fe:	44 1f       	adc	r20, r20
     300:	88 0c       	add	r8, r8
     302:	99 1c       	adc	r9, r9
     304:	aa 1c       	adc	r10, r10
     306:	bb 1c       	adc	r11, r11
     308:	44 1f       	adc	r20, r20
     30a:	88 0c       	add	r8, r8
     30c:	99 1c       	adc	r9, r9
     30e:	aa 1c       	adc	r10, r10
     310:	bb 1c       	adc	r11, r11
     312:	44 1f       	adc	r20, r20
     314:	84 26       	eor	r8, r20
     316:	40 26       	eor	r4, r16
     318:	51 26       	eor	r5, r17
     31a:	62 26       	eor	r6, r18
     31c:	73 26       	eor	r7, r19
     31e:	41 91       	ld	r20, Z+
     320:	51 91       	ld	r21, Z+
     322:	61 91       	ld	r22, Z+
     324:	71 91       	ld	r23, Z+
     326:	40 25       	eor	r20, r0
     328:	51 25       	eor	r21, r1
     32a:	62 25       	eor	r22, r2
     32c:	73 25       	eor	r23, r3
     32e:	44 0e       	add	r4, r20
     330:	55 1e       	adc	r5, r21
     332:	66 1e       	adc	r6, r22
     334:	77 1e       	adc	r7, r23
     336:	44 27       	eor	r20, r20
     338:	44 0c       	add	r4, r4
     33a:	55 1c       	adc	r5, r5
     33c:	66 1c       	adc	r6, r6
     33e:	77 1c       	adc	r7, r7
     340:	44 1f       	adc	r20, r20
     342:	44 26       	eor	r4, r20
     344:	01 91       	ld	r16, Z+
     346:	11 91       	ld	r17, Z+
     348:	21 91       	ld	r18, Z+
     34a:	31 91       	ld	r19, Z+
     34c:	00 26       	eor	r0, r16
     34e:	11 26       	eor	r1, r17
     350:	22 26       	eor	r2, r18
     352:	33 26       	eor	r3, r19
     354:	41 91       	ld	r20, Z+
     356:	51 91       	ld	r21, Z+
     358:	61 91       	ld	r22, Z+
     35a:	71 91       	ld	r23, Z+
     35c:	4c 25       	eor	r20, r12
     35e:	5d 25       	eor	r21, r13
     360:	6e 25       	eor	r22, r14
     362:	7f 25       	eor	r23, r15
     364:	04 0e       	add	r0, r20
     366:	15 1e       	adc	r1, r21
     368:	26 1e       	adc	r2, r22
     36a:	37 1e       	adc	r3, r23
     36c:	44 27       	eor	r20, r20
     36e:	36 94       	lsr	r3
     370:	27 94       	ror	r2
     372:	17 94       	ror	r1
     374:	07 94       	ror	r0
     376:	47 95       	ror	r20
     378:	36 94       	lsr	r3
     37a:	27 94       	ror	r2
     37c:	17 94       	ror	r1
     37e:	07 94       	ror	r0
     380:	47 95       	ror	r20
     382:	36 94       	lsr	r3
     384:	27 94       	ror	r2
     386:	17 94       	ror	r1
     388:	07 94       	ror	r0
     38a:	47 95       	ror	r20
     38c:	34 26       	eor	r3, r20
     38e:	c0 26       	eor	r12, r16
     390:	d1 26       	eor	r13, r17
     392:	e2 26       	eor	r14, r18
     394:	f3 26       	eor	r15, r19
     396:	41 91       	ld	r20, Z+
     398:	51 91       	ld	r21, Z+
     39a:	61 91       	ld	r22, Z+
     39c:	71 91       	ld	r23, Z+
     39e:	49 25       	eor	r20, r9
     3a0:	5a 25       	eor	r21, r10
     3a2:	6b 25       	eor	r22, r11
     3a4:	78 25       	eor	r23, r8
     3a6:	c4 0e       	add	r12, r20
     3a8:	d5 1e       	adc	r13, r21
     3aa:	e6 1e       	adc	r14, r22
     3ac:	f7 1e       	adc	r15, r23
     3ae:	44 27       	eor	r20, r20
     3b0:	cc 0c       	add	r12, r12
     3b2:	dd 1c       	adc	r13, r13
     3b4:	ee 1c       	adc	r14, r14
     3b6:	ff 1c       	adc	r15, r15
     3b8:	44 1f       	adc	r20, r20
     3ba:	cc 0c       	add	r12, r12
     3bc:	dd 1c       	adc	r13, r13
     3be:	ee 1c       	adc	r14, r14
     3c0:	ff 1c       	adc	r15, r15
     3c2:	44 1f       	adc	r20, r20
     3c4:	cc 0c       	add	r12, r12
     3c6:	dd 1c       	adc	r13, r13
     3c8:	ee 1c       	adc	r14, r14
     3ca:	ff 1c       	adc	r15, r15
     3cc:	44 1f       	adc	r20, r20
     3ce:	c4 26       	eor	r12, r20
     3d0:	90 26       	eor	r9, r16
     3d2:	a1 26       	eor	r10, r17
     3d4:	b2 26       	eor	r11, r18
     3d6:	83 26       	eor	r8, r19
     3d8:	41 91       	ld	r20, Z+
     3da:	51 91       	ld	r21, Z+
     3dc:	61 91       	ld	r22, Z+
     3de:	71 91       	ld	r23, Z+
     3e0:	47 25       	eor	r20, r7
     3e2:	54 25       	eor	r21, r4
     3e4:	65 25       	eor	r22, r5
     3e6:	76 25       	eor	r23, r6
     3e8:	94 0e       	add	r9, r20
     3ea:	a5 1e       	adc	r10, r21
     3ec:	b6 1e       	adc	r11, r22
     3ee:	87 1e       	adc	r8, r23
     3f0:	44 27       	eor	r20, r20
     3f2:	99 0c       	add	r9, r9
     3f4:	aa 1c       	adc	r10, r10
     3f6:	bb 1c       	adc	r11, r11
     3f8:	88 1c       	adc	r8, r8
     3fa:	44 1f       	adc	r20, r20
     3fc:	94 26       	eor	r9, r20
     3fe:	01 91       	ld	r16, Z+
     400:	11 91       	ld	r17, Z+
     402:	21 91       	ld	r18, Z+
     404:	31 91       	ld	r19, Z+
     406:	70 26       	eor	r7, r16
     408:	41 26       	eor	r4, r17
     40a:	52 26       	eor	r5, r18
     40c:	63 26       	eor	r6, r19
     40e:	41 91       	ld	r20, Z+
     410:	51 91       	ld	r21, Z+
     412:	61 91       	ld	r22, Z+
     414:	71 91       	ld	r23, Z+
     416:	40 25       	eor	r20, r0
     418:	51 25       	eor	r21, r1
     41a:	62 25       	eor	r22, r2
     41c:	73 25       	eor	r23, r3
     41e:	74 0e       	add	r7, r20
     420:	45 1e       	adc	r4, r21
     422:	56 1e       	adc	r5, r22
     424:	67 1e       	adc	r6, r23
     426:	44 27       	eor	r20, r20
     428:	66 94       	lsr	r6
     42a:	57 94       	ror	r5
     42c:	47 94       	ror	r4
     42e:	77 94       	ror	r7
     430:	47 95       	ror	r20
     432:	66 94       	lsr	r6
     434:	57 94       	ror	r5
     436:	47 94       	ror	r4
     438:	77 94       	ror	r7
     43a:	47 95       	ror	r20
     43c:	66 94       	lsr	r6
     43e:	57 94       	ror	r5
     440:	47 94       	ror	r4
     442:	77 94       	ror	r7
     444:	47 95       	ror	r20
     446:	64 26       	eor	r6, r20
     448:	00 26       	eor	r0, r16
     44a:	11 26       	eor	r1, r17
     44c:	22 26       	eor	r2, r18
     44e:	33 26       	eor	r3, r19
     450:	41 91       	ld	r20, Z+
     452:	51 91       	ld	r21, Z+
     454:	61 91       	ld	r22, Z+
     456:	71 91       	ld	r23, Z+
     458:	4d 25       	eor	r20, r13
     45a:	5e 25       	eor	r21, r14
     45c:	6f 25       	eor	r22, r15
     45e:	7c 25       	eor	r23, r12
     460:	04 0e       	add	r0, r20
     462:	15 1e       	adc	r1, r21
     464:	26 1e       	adc	r2, r22
     466:	37 1e       	adc	r3, r23
     468:	44 27       	eor	r20, r20
     46a:	00 0c       	add	r0, r0
     46c:	11 1c       	adc	r1, r1
     46e:	22 1c       	adc	r2, r2
     470:	33 1c       	adc	r3, r3
     472:	44 1f       	adc	r20, r20
     474:	00 0c       	add	r0, r0
     476:	11 1c       	adc	r1, r1
     478:	22 1c       	adc	r2, r2
     47a:	33 1c       	adc	r3, r3
     47c:	44 1f       	adc	r20, r20
     47e:	00 0c       	add	r0, r0
     480:	11 1c       	adc	r1, r1
     482:	22 1c       	adc	r2, r2
     484:	33 1c       	adc	r3, r3
     486:	44 1f       	adc	r20, r20
     488:	04 26       	eor	r0, r20
     48a:	d0 26       	eor	r13, r16
     48c:	e1 26       	eor	r14, r17
     48e:	f2 26       	eor	r15, r18
     490:	c3 26       	eor	r12, r19
     492:	41 91       	ld	r20, Z+
     494:	51 91       	ld	r21, Z+
     496:	61 91       	ld	r22, Z+
     498:	71 91       	ld	r23, Z+
     49a:	48 25       	eor	r20, r8
     49c:	59 25       	eor	r21, r9
     49e:	6a 25       	eor	r22, r10
     4a0:	7b 25       	eor	r23, r11
     4a2:	d4 0e       	add	r13, r20
     4a4:	e5 1e       	adc	r14, r21
     4a6:	f6 1e       	adc	r15, r22
     4a8:	c7 1e       	adc	r12, r23
     4aa:	44 27       	eor	r20, r20
     4ac:	dd 0c       	add	r13, r13
     4ae:	ee 1c       	adc	r14, r14
     4b0:	ff 1c       	adc	r15, r15
     4b2:	cc 1c       	adc	r12, r12
     4b4:	44 1f       	adc	r20, r20
     4b6:	d4 26       	eor	r13, r20
     4b8:	01 91       	ld	r16, Z+
     4ba:	11 91       	ld	r17, Z+
     4bc:	21 91       	ld	r18, Z+
     4be:	31 91       	ld	r19, Z+
     4c0:	80 26       	eor	r8, r16
     4c2:	91 26       	eor	r9, r17
     4c4:	a2 26       	eor	r10, r18
     4c6:	b3 26       	eor	r11, r19
     4c8:	41 91       	ld	r20, Z+
     4ca:	51 91       	ld	r21, Z+
     4cc:	61 91       	ld	r22, Z+
     4ce:	71 91       	ld	r23, Z+
     4d0:	47 25       	eor	r20, r7
     4d2:	54 25       	eor	r21, r4
     4d4:	65 25       	eor	r22, r5
     4d6:	76 25       	eor	r23, r6
     4d8:	84 0e       	add	r8, r20
     4da:	95 1e       	adc	r9, r21
     4dc:	a6 1e       	adc	r10, r22
     4de:	b7 1e       	adc	r11, r23
     4e0:	44 27       	eor	r20, r20
     4e2:	b6 94       	lsr	r11
     4e4:	a7 94       	ror	r10
     4e6:	97 94       	ror	r9
     4e8:	87 94       	ror	r8
     4ea:	47 95       	ror	r20
     4ec:	b6 94       	lsr	r11
     4ee:	a7 94       	ror	r10
     4f0:	97 94       	ror	r9
     4f2:	87 94       	ror	r8
     4f4:	47 95       	ror	r20
     4f6:	b6 94       	lsr	r11
     4f8:	a7 94       	ror	r10
     4fa:	97 94       	ror	r9
     4fc:	87 94       	ror	r8
     4fe:	47 95       	ror	r20
     500:	b4 26       	eor	r11, r20
     502:	70 26       	eor	r7, r16
     504:	41 26       	eor	r4, r17
     506:	52 26       	eor	r5, r18
     508:	63 26       	eor	r6, r19
     50a:	41 91       	ld	r20, Z+
     50c:	51 91       	ld	r21, Z+
     50e:	61 91       	ld	r22, Z+
     510:	71 91       	ld	r23, Z+
     512:	41 25       	eor	r20, r1
     514:	52 25       	eor	r21, r2
     516:	63 25       	eor	r22, r3
     518:	70 25       	eor	r23, r0
     51a:	74 0e       	add	r7, r20
     51c:	45 1e       	adc	r4, r21
     51e:	56 1e       	adc	r5, r22
     520:	67 1e       	adc	r6, r23
     522:	44 27       	eor	r20, r20
     524:	77 0c       	add	r7, r7
     526:	44 1c       	adc	r4, r4
     528:	55 1c       	adc	r5, r5
     52a:	66 1c       	adc	r6, r6
     52c:	44 1f       	adc	r20, r20
     52e:	77 0c       	add	r7, r7
     530:	44 1c       	adc	r4, r4
     532:	55 1c       	adc	r5, r5
     534:	66 1c       	adc	r6, r6
     536:	44 1f       	adc	r20, r20
     538:	77 0c       	add	r7, r7
     53a:	44 1c       	adc	r4, r4
     53c:	55 1c       	adc	r5, r5
     53e:	66 1c       	adc	r6, r6
     540:	44 1f       	adc	r20, r20
     542:	74 26       	eor	r7, r20
     544:	10 26       	eor	r1, r16
     546:	21 26       	eor	r2, r17
     548:	32 26       	eor	r3, r18
     54a:	03 26       	eor	r0, r19
     54c:	41 91       	ld	r20, Z+
     54e:	51 91       	ld	r21, Z+
     550:	61 91       	ld	r22, Z+
     552:	71 91       	ld	r23, Z+
     554:	4c 25       	eor	r20, r12
     556:	5d 25       	eor	r21, r13
     558:	6e 25       	eor	r22, r14
     55a:	7f 25       	eor	r23, r15
     55c:	14 0e       	add	r1, r20
     55e:	25 1e       	adc	r2, r21
     560:	36 1e       	adc	r3, r22
     562:	07 1e       	adc	r0, r23
     564:	44 27       	eor	r20, r20
     566:	11 0c       	add	r1, r1
     568:	22 1c       	adc	r2, r2
     56a:	33 1c       	adc	r3, r3
     56c:	00 1c       	adc	r0, r0
     56e:	44 1f       	adc	r20, r20
     570:	14 26       	eor	r1, r20
     572:	01 91       	ld	r16, Z+
     574:	11 91       	ld	r17, Z+
     576:	21 91       	ld	r18, Z+
     578:	31 91       	ld	r19, Z+
     57a:	c0 26       	eor	r12, r16
     57c:	d1 26       	eor	r13, r17
     57e:	e2 26       	eor	r14, r18
     580:	f3 26       	eor	r15, r19
     582:	41 91       	ld	r20, Z+
     584:	51 91       	ld	r21, Z+
     586:	61 91       	ld	r22, Z+
     588:	71 91       	ld	r23, Z+
     58a:	48 25       	eor	r20, r8
     58c:	59 25       	eor	r21, r9
     58e:	6a 25       	eor	r22, r10
     590:	7b 25       	eor	r23, r11
     592:	c4 0e       	add	r12, r20
     594:	d5 1e       	adc	r13, r21
     596:	e6 1e       	adc	r14, r22
     598:	f7 1e       	adc	r15, r23
     59a:	44 27       	eor	r20, r20
     59c:	f6 94       	lsr	r15
     59e:	e7 94       	ror	r14
     5a0:	d7 94       	ror	r13
     5a2:	c7 94       	ror	r12
     5a4:	47 95       	ror	r20
     5a6:	f6 94       	lsr	r15
     5a8:	e7 94       	ror	r14
     5aa:	d7 94       	ror	r13
     5ac:	c7 94       	ror	r12
     5ae:	47 95       	ror	r20
     5b0:	f6 94       	lsr	r15
     5b2:	e7 94       	ror	r14
     5b4:	d7 94       	ror	r13
     5b6:	c7 94       	ror	r12
     5b8:	47 95       	ror	r20
     5ba:	f4 26       	eor	r15, r20
     5bc:	80 26       	eor	r8, r16
     5be:	91 26       	eor	r9, r17
     5c0:	a2 26       	eor	r10, r18
     5c2:	b3 26       	eor	r11, r19
     5c4:	41 91       	ld	r20, Z+
     5c6:	51 91       	ld	r21, Z+
     5c8:	61 91       	ld	r22, Z+
     5ca:	71 91       	ld	r23, Z+
     5cc:	44 25       	eor	r20, r4
     5ce:	55 25       	eor	r21, r5
     5d0:	66 25       	eor	r22, r6
     5d2:	77 25       	eor	r23, r7
     5d4:	84 0e       	add	r8, r20
     5d6:	95 1e       	adc	r9, r21
     5d8:	a6 1e       	adc	r10, r22
     5da:	b7 1e       	adc	r11, r23
     5dc:	44 27       	eor	r20, r20
     5de:	88 0c       	add	r8, r8
     5e0:	99 1c       	adc	r9, r9
     5e2:	aa 1c       	adc	r10, r10
     5e4:	bb 1c       	adc	r11, r11
     5e6:	44 1f       	adc	r20, r20
     5e8:	88 0c       	add	r8, r8
     5ea:	99 1c       	adc	r9, r9
     5ec:	aa 1c       	adc	r10, r10
     5ee:	bb 1c       	adc	r11, r11
     5f0:	44 1f       	adc	r20, r20
     5f2:	88 0c       	add	r8, r8
     5f4:	99 1c       	adc	r9, r9
     5f6:	aa 1c       	adc	r10, r10
     5f8:	bb 1c       	adc	r11, r11
     5fa:	44 1f       	adc	r20, r20
     5fc:	84 26       	eor	r8, r20
     5fe:	40 26       	eor	r4, r16
     600:	51 26       	eor	r5, r17
     602:	62 26       	eor	r6, r18
     604:	73 26       	eor	r7, r19
     606:	41 91       	ld	r20, Z+
     608:	51 91       	ld	r21, Z+
     60a:	61 91       	ld	r22, Z+
     60c:	71 91       	ld	r23, Z+
     60e:	40 25       	eor	r20, r0
     610:	51 25       	eor	r21, r1
     612:	62 25       	eor	r22, r2
     614:	73 25       	eor	r23, r3
     616:	44 0e       	add	r4, r20
     618:	55 1e       	adc	r5, r21
     61a:	66 1e       	adc	r6, r22
     61c:	77 1e       	adc	r7, r23
     61e:	44 27       	eor	r20, r20
     620:	44 0c       	add	r4, r4
     622:	55 1c       	adc	r5, r5
     624:	66 1c       	adc	r6, r6
     626:	77 1c       	adc	r7, r7
     628:	44 1f       	adc	r20, r20
     62a:	44 26       	eor	r4, r20
     62c:	01 91       	ld	r16, Z+
     62e:	11 91       	ld	r17, Z+
     630:	21 91       	ld	r18, Z+
     632:	31 91       	ld	r19, Z+
     634:	00 26       	eor	r0, r16
     636:	11 26       	eor	r1, r17
     638:	22 26       	eor	r2, r18
     63a:	33 26       	eor	r3, r19
     63c:	41 91       	ld	r20, Z+
     63e:	51 91       	ld	r21, Z+
     640:	61 91       	ld	r22, Z+
     642:	71 91       	ld	r23, Z+
     644:	4c 25       	eor	r20, r12
     646:	5d 25       	eor	r21, r13
     648:	6e 25       	eor	r22, r14
     64a:	7f 25       	eor	r23, r15
     64c:	04 0e       	add	r0, r20
     64e:	15 1e       	adc	r1, r21
     650:	26 1e       	adc	r2, r22
     652:	37 1e       	adc	r3, r23
     654:	44 27       	eor	r20, r20
     656:	36 94       	lsr	r3
     658:	27 94       	ror	r2
     65a:	17 94       	ror	r1
     65c:	07 94       	ror	r0
     65e:	47 95       	ror	r20
     660:	36 94       	lsr	r3
     662:	27 94       	ror	r2
     664:	17 94       	ror	r1
     666:	07 94       	ror	r0
     668:	47 95       	ror	r20
     66a:	36 94       	lsr	r3
     66c:	27 94       	ror	r2
     66e:	17 94       	ror	r1
     670:	07 94       	ror	r0
     672:	47 95       	ror	r20
     674:	34 26       	eor	r3, r20
     676:	c0 26       	eor	r12, r16
     678:	d1 26       	eor	r13, r17
     67a:	e2 26       	eor	r14, r18
     67c:	f3 26       	eor	r15, r19
     67e:	41 91       	ld	r20, Z+
     680:	51 91       	ld	r21, Z+
     682:	61 91       	ld	r22, Z+
     684:	71 91       	ld	r23, Z+
     686:	49 25       	eor	r20, r9
     688:	5a 25       	eor	r21, r10
     68a:	6b 25       	eor	r22, r11
     68c:	78 25       	eor	r23, r8
     68e:	c4 0e       	add	r12, r20
     690:	d5 1e       	adc	r13, r21
     692:	e6 1e       	adc	r14, r22
     694:	f7 1e       	adc	r15, r23
     696:	44 27       	eor	r20, r20
     698:	cc 0c       	add	r12, r12
     69a:	dd 1c       	adc	r13, r13
     69c:	ee 1c       	adc	r14, r14
     69e:	ff 1c       	adc	r15, r15
     6a0:	44 1f       	adc	r20, r20
     6a2:	cc 0c       	add	r12, r12
     6a4:	dd 1c       	adc	r13, r13
     6a6:	ee 1c       	adc	r14, r14
     6a8:	ff 1c       	adc	r15, r15
     6aa:	44 1f       	adc	r20, r20
     6ac:	cc 0c       	add	r12, r12
     6ae:	dd 1c       	adc	r13, r13
     6b0:	ee 1c       	adc	r14, r14
     6b2:	ff 1c       	adc	r15, r15
     6b4:	44 1f       	adc	r20, r20
     6b6:	c4 26       	eor	r12, r20
     6b8:	90 26       	eor	r9, r16
     6ba:	a1 26       	eor	r10, r17
     6bc:	b2 26       	eor	r11, r18
     6be:	83 26       	eor	r8, r19
     6c0:	41 91       	ld	r20, Z+
     6c2:	51 91       	ld	r21, Z+
     6c4:	61 91       	ld	r22, Z+
     6c6:	71 91       	ld	r23, Z+
     6c8:	47 25       	eor	r20, r7
     6ca:	54 25       	eor	r21, r4
     6cc:	65 25       	eor	r22, r5
     6ce:	76 25       	eor	r23, r6
     6d0:	94 0e       	add	r9, r20
     6d2:	a5 1e       	adc	r10, r21
     6d4:	b6 1e       	adc	r11, r22
     6d6:	87 1e       	adc	r8, r23
     6d8:	44 27       	eor	r20, r20
     6da:	99 0c       	add	r9, r9
     6dc:	aa 1c       	adc	r10, r10
     6de:	bb 1c       	adc	r11, r11
     6e0:	88 1c       	adc	r8, r8
     6e2:	44 1f       	adc	r20, r20
     6e4:	94 26       	eor	r9, r20
     6e6:	01 91       	ld	r16, Z+
     6e8:	11 91       	ld	r17, Z+
     6ea:	21 91       	ld	r18, Z+
     6ec:	31 91       	ld	r19, Z+
     6ee:	70 26       	eor	r7, r16
     6f0:	41 26       	eor	r4, r17
     6f2:	52 26       	eor	r5, r18
     6f4:	63 26       	eor	r6, r19
     6f6:	41 91       	ld	r20, Z+
     6f8:	51 91       	ld	r21, Z+
     6fa:	61 91       	ld	r22, Z+
     6fc:	71 91       	ld	r23, Z+
     6fe:	40 25       	eor	r20, r0
     700:	51 25       	eor	r21, r1
     702:	62 25       	eor	r22, r2
     704:	73 25       	eor	r23, r3
     706:	74 0e       	add	r7, r20
     708:	45 1e       	adc	r4, r21
     70a:	56 1e       	adc	r5, r22
     70c:	67 1e       	adc	r6, r23
     70e:	44 27       	eor	r20, r20
     710:	66 94       	lsr	r6
     712:	57 94       	ror	r5
     714:	47 94       	ror	r4
     716:	77 94       	ror	r7
     718:	47 95       	ror	r20
     71a:	66 94       	lsr	r6
     71c:	57 94       	ror	r5
     71e:	47 94       	ror	r4
     720:	77 94       	ror	r7
     722:	47 95       	ror	r20
     724:	66 94       	lsr	r6
     726:	57 94       	ror	r5
     728:	47 94       	ror	r4
     72a:	77 94       	ror	r7
     72c:	47 95       	ror	r20
     72e:	64 26       	eor	r6, r20
     730:	00 26       	eor	r0, r16
     732:	11 26       	eor	r1, r17
     734:	22 26       	eor	r2, r18
     736:	33 26       	eor	r3, r19
     738:	41 91       	ld	r20, Z+
     73a:	51 91       	ld	r21, Z+
     73c:	61 91       	ld	r22, Z+
     73e:	71 91       	ld	r23, Z+
     740:	4d 25       	eor	r20, r13
     742:	5e 25       	eor	r21, r14
     744:	6f 25       	eor	r22, r15
     746:	7c 25       	eor	r23, r12
     748:	04 0e       	add	r0, r20
     74a:	15 1e       	adc	r1, r21
     74c:	26 1e       	adc	r2, r22
     74e:	37 1e       	adc	r3, r23
     750:	44 27       	eor	r20, r20
     752:	00 0c       	add	r0, r0
     754:	11 1c       	adc	r1, r1
     756:	22 1c       	adc	r2, r2
     758:	33 1c       	adc	r3, r3
     75a:	44 1f       	adc	r20, r20
     75c:	00 0c       	add	r0, r0
     75e:	11 1c       	adc	r1, r1
     760:	22 1c       	adc	r2, r2
     762:	33 1c       	adc	r3, r3
     764:	44 1f       	adc	r20, r20
     766:	00 0c       	add	r0, r0
     768:	11 1c       	adc	r1, r1
     76a:	22 1c       	adc	r2, r2
     76c:	33 1c       	adc	r3, r3
     76e:	44 1f       	adc	r20, r20
     770:	04 26       	eor	r0, r20
     772:	d0 26       	eor	r13, r16
     774:	e1 26       	eor	r14, r17
     776:	f2 26       	eor	r15, r18
     778:	c3 26       	eor	r12, r19
     77a:	41 91       	ld	r20, Z+
     77c:	51 91       	ld	r21, Z+
     77e:	61 91       	ld	r22, Z+
     780:	71 91       	ld	r23, Z+
     782:	48 25       	eor	r20, r8
     784:	59 25       	eor	r21, r9
     786:	6a 25       	eor	r22, r10
     788:	7b 25       	eor	r23, r11
     78a:	d4 0e       	add	r13, r20
     78c:	e5 1e       	adc	r14, r21
     78e:	f6 1e       	adc	r15, r22
     790:	c7 1e       	adc	r12, r23
     792:	44 27       	eor	r20, r20
     794:	dd 0c       	add	r13, r13
     796:	ee 1c       	adc	r14, r14
     798:	ff 1c       	adc	r15, r15
     79a:	cc 1c       	adc	r12, r12
     79c:	44 1f       	adc	r20, r20
     79e:	d4 26       	eor	r13, r20
     7a0:	01 91       	ld	r16, Z+
     7a2:	11 91       	ld	r17, Z+
     7a4:	21 91       	ld	r18, Z+
     7a6:	31 91       	ld	r19, Z+
     7a8:	80 26       	eor	r8, r16
     7aa:	91 26       	eor	r9, r17
     7ac:	a2 26       	eor	r10, r18
     7ae:	b3 26       	eor	r11, r19
     7b0:	41 91       	ld	r20, Z+
     7b2:	51 91       	ld	r21, Z+
     7b4:	61 91       	ld	r22, Z+
     7b6:	71 91       	ld	r23, Z+
     7b8:	47 25       	eor	r20, r7
     7ba:	54 25       	eor	r21, r4
     7bc:	65 25       	eor	r22, r5
     7be:	76 25       	eor	r23, r6
     7c0:	84 0e       	add	r8, r20
     7c2:	95 1e       	adc	r9, r21
     7c4:	a6 1e       	adc	r10, r22
     7c6:	b7 1e       	adc	r11, r23
     7c8:	44 27       	eor	r20, r20
     7ca:	b6 94       	lsr	r11
     7cc:	a7 94       	ror	r10
     7ce:	97 94       	ror	r9
     7d0:	87 94       	ror	r8
     7d2:	47 95       	ror	r20
     7d4:	b6 94       	lsr	r11
     7d6:	a7 94       	ror	r10
     7d8:	97 94       	ror	r9
     7da:	87 94       	ror	r8
     7dc:	47 95       	ror	r20
     7de:	b6 94       	lsr	r11
     7e0:	a7 94       	ror	r10
     7e2:	97 94       	ror	r9
     7e4:	87 94       	ror	r8
     7e6:	47 95       	ror	r20
     7e8:	b4 26       	eor	r11, r20
     7ea:	70 26       	eor	r7, r16
     7ec:	41 26       	eor	r4, r17
     7ee:	52 26       	eor	r5, r18
     7f0:	63 26       	eor	r6, r19
     7f2:	41 91       	ld	r20, Z+
     7f4:	51 91       	ld	r21, Z+
     7f6:	61 91       	ld	r22, Z+
     7f8:	71 91       	ld	r23, Z+
     7fa:	41 25       	eor	r20, r1
     7fc:	52 25       	eor	r21, r2
     7fe:	63 25       	eor	r22, r3
     800:	70 25       	eor	r23, r0
     802:	74 0e       	add	r7, r20
     804:	45 1e       	adc	r4, r21
     806:	56 1e       	adc	r5, r22
     808:	67 1e       	adc	r6, r23
     80a:	44 27       	eor	r20, r20
     80c:	77 0c       	add	r7, r7
     80e:	44 1c       	adc	r4, r4
     810:	55 1c       	adc	r5, r5
     812:	66 1c       	adc	r6, r6
     814:	44 1f       	adc	r20, r20
     816:	77 0c       	add	r7, r7
     818:	44 1c       	adc	r4, r4
     81a:	55 1c       	adc	r5, r5
     81c:	66 1c       	adc	r6, r6
     81e:	44 1f       	adc	r20, r20
     820:	77 0c       	add	r7, r7
     822:	44 1c       	adc	r4, r4
     824:	55 1c       	adc	r5, r5
     826:	66 1c       	adc	r6, r6
     828:	44 1f       	adc	r20, r20
     82a:	74 26       	eor	r7, r20
     82c:	10 26       	eor	r1, r16
     82e:	21 26       	eor	r2, r17
     830:	32 26       	eor	r3, r18
     832:	03 26       	eor	r0, r19
     834:	41 91       	ld	r20, Z+
     836:	51 91       	ld	r21, Z+
     838:	61 91       	ld	r22, Z+
     83a:	71 91       	ld	r23, Z+
     83c:	4c 25       	eor	r20, r12
     83e:	5d 25       	eor	r21, r13
     840:	6e 25       	eor	r22, r14
     842:	7f 25       	eor	r23, r15
     844:	14 0e       	add	r1, r20
     846:	25 1e       	adc	r2, r21
     848:	36 1e       	adc	r3, r22
     84a:	07 1e       	adc	r0, r23
     84c:	44 27       	eor	r20, r20
     84e:	11 0c       	add	r1, r1
     850:	22 1c       	adc	r2, r2
     852:	33 1c       	adc	r3, r3
     854:	00 1c       	adc	r0, r0
     856:	44 1f       	adc	r20, r20
     858:	14 26       	eor	r1, r20
     85a:	01 91       	ld	r16, Z+
     85c:	11 91       	ld	r17, Z+
     85e:	21 91       	ld	r18, Z+
     860:	31 91       	ld	r19, Z+
     862:	c0 26       	eor	r12, r16
     864:	d1 26       	eor	r13, r17
     866:	e2 26       	eor	r14, r18
     868:	f3 26       	eor	r15, r19
     86a:	41 91       	ld	r20, Z+
     86c:	51 91       	ld	r21, Z+
     86e:	61 91       	ld	r22, Z+
     870:	71 91       	ld	r23, Z+
     872:	48 25       	eor	r20, r8
     874:	59 25       	eor	r21, r9
     876:	6a 25       	eor	r22, r10
     878:	7b 25       	eor	r23, r11
     87a:	c4 0e       	add	r12, r20
     87c:	d5 1e       	adc	r13, r21
     87e:	e6 1e       	adc	r14, r22
     880:	f7 1e       	adc	r15, r23
     882:	44 27       	eor	r20, r20
     884:	f6 94       	lsr	r15
     886:	e7 94       	ror	r14
     888:	d7 94       	ror	r13
     88a:	c7 94       	ror	r12
     88c:	47 95       	ror	r20
     88e:	f6 94       	lsr	r15
     890:	e7 94       	ror	r14
     892:	d7 94       	ror	r13
     894:	c7 94       	ror	r12
     896:	47 95       	ror	r20
     898:	f6 94       	lsr	r15
     89a:	e7 94       	ror	r14
     89c:	d7 94       	ror	r13
     89e:	c7 94       	ror	r12
     8a0:	47 95       	ror	r20
     8a2:	f4 26       	eor	r15, r20
     8a4:	80 26       	eor	r8, r16
     8a6:	91 26       	eor	r9, r17
     8a8:	a2 26       	eor	r10, r18
     8aa:	b3 26       	eor	r11, r19
     8ac:	41 91       	ld	r20, Z+
     8ae:	51 91       	ld	r21, Z+
     8b0:	61 91       	ld	r22, Z+
     8b2:	71 91       	ld	r23, Z+
     8b4:	44 25       	eor	r20, r4
     8b6:	55 25       	eor	r21, r5
     8b8:	66 25       	eor	r22, r6
     8ba:	77 25       	eor	r23, r7
     8bc:	84 0e       	add	r8, r20
     8be:	95 1e       	adc	r9, r21
     8c0:	a6 1e       	adc	r10, r22
     8c2:	b7 1e       	adc	r11, r23
     8c4:	44 27       	eor	r20, r20
     8c6:	88 0c       	add	r8, r8
     8c8:	99 1c       	adc	r9, r9
     8ca:	aa 1c       	adc	r10, r10
     8cc:	bb 1c       	adc	r11, r11
     8ce:	44 1f       	adc	r20, r20
     8d0:	88 0c       	add	r8, r8
     8d2:	99 1c       	adc	r9, r9
     8d4:	aa 1c       	adc	r10, r10
     8d6:	bb 1c       	adc	r11, r11
     8d8:	44 1f       	adc	r20, r20
     8da:	88 0c       	add	r8, r8
     8dc:	99 1c       	adc	r9, r9
     8de:	aa 1c       	adc	r10, r10
     8e0:	bb 1c       	adc	r11, r11
     8e2:	44 1f       	adc	r20, r20
     8e4:	84 26       	eor	r8, r20
     8e6:	40 26       	eor	r4, r16
     8e8:	51 26       	eor	r5, r17
     8ea:	62 26       	eor	r6, r18
     8ec:	73 26       	eor	r7, r19
     8ee:	41 91       	ld	r20, Z+
     8f0:	51 91       	ld	r21, Z+
     8f2:	61 91       	ld	r22, Z+
     8f4:	71 91       	ld	r23, Z+
     8f6:	40 25       	eor	r20, r0
     8f8:	51 25       	eor	r21, r1
     8fa:	62 25       	eor	r22, r2
     8fc:	73 25       	eor	r23, r3
     8fe:	44 0e       	add	r4, r20
     900:	55 1e       	adc	r5, r21
     902:	66 1e       	adc	r6, r22
     904:	77 1e       	adc	r7, r23
     906:	44 27       	eor	r20, r20
     908:	44 0c       	add	r4, r4
     90a:	55 1c       	adc	r5, r5
     90c:	66 1c       	adc	r6, r6
     90e:	77 1c       	adc	r7, r7
     910:	44 1f       	adc	r20, r20
     912:	44 26       	eor	r4, r20
     914:	01 91       	ld	r16, Z+
     916:	11 91       	ld	r17, Z+
     918:	21 91       	ld	r18, Z+
     91a:	31 91       	ld	r19, Z+
     91c:	00 26       	eor	r0, r16
     91e:	11 26       	eor	r1, r17
     920:	22 26       	eor	r2, r18
     922:	33 26       	eor	r3, r19
     924:	41 91       	ld	r20, Z+
     926:	51 91       	ld	r21, Z+
     928:	61 91       	ld	r22, Z+
     92a:	71 91       	ld	r23, Z+
     92c:	4c 25       	eor	r20, r12
     92e:	5d 25       	eor	r21, r13
     930:	6e 25       	eor	r22, r14
     932:	7f 25       	eor	r23, r15
     934:	04 0e       	add	r0, r20
     936:	15 1e       	adc	r1, r21
     938:	26 1e       	adc	r2, r22
     93a:	37 1e       	adc	r3, r23
     93c:	44 27       	eor	r20, r20
     93e:	36 94       	lsr	r3
     940:	27 94       	ror	r2
     942:	17 94       	ror	r1
     944:	07 94       	ror	r0
     946:	47 95       	ror	r20
     948:	36 94       	lsr	r3
     94a:	27 94       	ror	r2
     94c:	17 94       	ror	r1
     94e:	07 94       	ror	r0
     950:	47 95       	ror	r20
     952:	36 94       	lsr	r3
     954:	27 94       	ror	r2
     956:	17 94       	ror	r1
     958:	07 94       	ror	r0
     95a:	47 95       	ror	r20
     95c:	34 26       	eor	r3, r20
     95e:	c0 26       	eor	r12, r16
     960:	d1 26       	eor	r13, r17
     962:	e2 26       	eor	r14, r18
     964:	f3 26       	eor	r15, r19
     966:	41 91       	ld	r20, Z+
     968:	51 91       	ld	r21, Z+
     96a:	61 91       	ld	r22, Z+
     96c:	71 91       	ld	r23, Z+
     96e:	49 25       	eor	r20, r9
     970:	5a 25       	eor	r21, r10
     972:	6b 25       	eor	r22, r11
     974:	78 25       	eor	r23, r8
     976:	c4 0e       	add	r12, r20
     978:	d5 1e       	adc	r13, r21
     97a:	e6 1e       	adc	r14, r22
     97c:	f7 1e       	adc	r15, r23
     97e:	44 27       	eor	r20, r20
     980:	cc 0c       	add	r12, r12
     982:	dd 1c       	adc	r13, r13
     984:	ee 1c       	adc	r14, r14
     986:	ff 1c       	adc	r15, r15
     988:	44 1f       	adc	r20, r20
     98a:	cc 0c       	add	r12, r12
     98c:	dd 1c       	adc	r13, r13
     98e:	ee 1c       	adc	r14, r14
     990:	ff 1c       	adc	r15, r15
     992:	44 1f       	adc	r20, r20
     994:	cc 0c       	add	r12, r12
     996:	dd 1c       	adc	r13, r13
     998:	ee 1c       	adc	r14, r14
     99a:	ff 1c       	adc	r15, r15
     99c:	44 1f       	adc	r20, r20
     99e:	c4 26       	eor	r12, r20
     9a0:	90 26       	eor	r9, r16
     9a2:	a1 26       	eor	r10, r17
     9a4:	b2 26       	eor	r11, r18
     9a6:	83 26       	eor	r8, r19
     9a8:	41 91       	ld	r20, Z+
     9aa:	51 91       	ld	r21, Z+
     9ac:	61 91       	ld	r22, Z+
     9ae:	71 91       	ld	r23, Z+
     9b0:	47 25       	eor	r20, r7
     9b2:	54 25       	eor	r21, r4
     9b4:	65 25       	eor	r22, r5
     9b6:	76 25       	eor	r23, r6
     9b8:	94 0e       	add	r9, r20
     9ba:	a5 1e       	adc	r10, r21
     9bc:	b6 1e       	adc	r11, r22
     9be:	87 1e       	adc	r8, r23
     9c0:	44 27       	eor	r20, r20
     9c2:	99 0c       	add	r9, r9
     9c4:	aa 1c       	adc	r10, r10
     9c6:	bb 1c       	adc	r11, r11
     9c8:	88 1c       	adc	r8, r8
     9ca:	44 1f       	adc	r20, r20
     9cc:	94 26       	eor	r9, r20
     9ce:	01 91       	ld	r16, Z+
     9d0:	11 91       	ld	r17, Z+
     9d2:	21 91       	ld	r18, Z+
     9d4:	31 91       	ld	r19, Z+
     9d6:	70 26       	eor	r7, r16
     9d8:	41 26       	eor	r4, r17
     9da:	52 26       	eor	r5, r18
     9dc:	63 26       	eor	r6, r19
     9de:	41 91       	ld	r20, Z+
     9e0:	51 91       	ld	r21, Z+
     9e2:	61 91       	ld	r22, Z+
     9e4:	71 91       	ld	r23, Z+
     9e6:	40 25       	eor	r20, r0
     9e8:	51 25       	eor	r21, r1
     9ea:	62 25       	eor	r22, r2
     9ec:	73 25       	eor	r23, r3
     9ee:	74 0e       	add	r7, r20
     9f0:	45 1e       	adc	r4, r21
     9f2:	56 1e       	adc	r5, r22
     9f4:	67 1e       	adc	r6, r23
     9f6:	44 27       	eor	r20, r20
     9f8:	66 94       	lsr	r6
     9fa:	57 94       	ror	r5
     9fc:	47 94       	ror	r4
     9fe:	77 94       	ror	r7
     a00:	47 95       	ror	r20
     a02:	66 94       	lsr	r6
     a04:	57 94       	ror	r5
     a06:	47 94       	ror	r4
     a08:	77 94       	ror	r7
     a0a:	47 95       	ror	r20
     a0c:	66 94       	lsr	r6
     a0e:	57 94       	ror	r5
     a10:	47 94       	ror	r4
     a12:	77 94       	ror	r7
     a14:	47 95       	ror	r20
     a16:	64 26       	eor	r6, r20
     a18:	00 26       	eor	r0, r16
     a1a:	11 26       	eor	r1, r17
     a1c:	22 26       	eor	r2, r18
     a1e:	33 26       	eor	r3, r19
     a20:	41 91       	ld	r20, Z+
     a22:	51 91       	ld	r21, Z+
     a24:	61 91       	ld	r22, Z+
     a26:	71 91       	ld	r23, Z+
     a28:	4d 25       	eor	r20, r13
     a2a:	5e 25       	eor	r21, r14
     a2c:	6f 25       	eor	r22, r15
     a2e:	7c 25       	eor	r23, r12
     a30:	04 0e       	add	r0, r20
     a32:	15 1e       	adc	r1, r21
     a34:	26 1e       	adc	r2, r22
     a36:	37 1e       	adc	r3, r23
     a38:	44 27       	eor	r20, r20
     a3a:	00 0c       	add	r0, r0
     a3c:	11 1c       	adc	r1, r1
     a3e:	22 1c       	adc	r2, r2
     a40:	33 1c       	adc	r3, r3
     a42:	44 1f       	adc	r20, r20
     a44:	00 0c       	add	r0, r0
     a46:	11 1c       	adc	r1, r1
     a48:	22 1c       	adc	r2, r2
     a4a:	33 1c       	adc	r3, r3
     a4c:	44 1f       	adc	r20, r20
     a4e:	00 0c       	add	r0, r0
     a50:	11 1c       	adc	r1, r1
     a52:	22 1c       	adc	r2, r2
     a54:	33 1c       	adc	r3, r3
     a56:	44 1f       	adc	r20, r20
     a58:	04 26       	eor	r0, r20
     a5a:	d0 26       	eor	r13, r16
     a5c:	e1 26       	eor	r14, r17
     a5e:	f2 26       	eor	r15, r18
     a60:	c3 26       	eor	r12, r19
     a62:	41 91       	ld	r20, Z+
     a64:	51 91       	ld	r21, Z+
     a66:	61 91       	ld	r22, Z+
     a68:	71 91       	ld	r23, Z+
     a6a:	48 25       	eor	r20, r8
     a6c:	59 25       	eor	r21, r9
     a6e:	6a 25       	eor	r22, r10
     a70:	7b 25       	eor	r23, r11
     a72:	d4 0e       	add	r13, r20
     a74:	e5 1e       	adc	r14, r21
     a76:	f6 1e       	adc	r15, r22
     a78:	c7 1e       	adc	r12, r23
     a7a:	44 27       	eor	r20, r20
     a7c:	dd 0c       	add	r13, r13
     a7e:	ee 1c       	adc	r14, r14
     a80:	ff 1c       	adc	r15, r15
     a82:	cc 1c       	adc	r12, r12
     a84:	44 1f       	adc	r20, r20
     a86:	d4 26       	eor	r13, r20
     a88:	01 91       	ld	r16, Z+
     a8a:	11 91       	ld	r17, Z+
     a8c:	21 91       	ld	r18, Z+
     a8e:	31 91       	ld	r19, Z+
     a90:	80 26       	eor	r8, r16
     a92:	91 26       	eor	r9, r17
     a94:	a2 26       	eor	r10, r18
     a96:	b3 26       	eor	r11, r19
     a98:	41 91       	ld	r20, Z+
     a9a:	51 91       	ld	r21, Z+
     a9c:	61 91       	ld	r22, Z+
     a9e:	71 91       	ld	r23, Z+
     aa0:	47 25       	eor	r20, r7
     aa2:	54 25       	eor	r21, r4
     aa4:	65 25       	eor	r22, r5
     aa6:	76 25       	eor	r23, r6
     aa8:	84 0e       	add	r8, r20
     aaa:	95 1e       	adc	r9, r21
     aac:	a6 1e       	adc	r10, r22
     aae:	b7 1e       	adc	r11, r23
     ab0:	44 27       	eor	r20, r20
     ab2:	b6 94       	lsr	r11
     ab4:	a7 94       	ror	r10
     ab6:	97 94       	ror	r9
     ab8:	87 94       	ror	r8
     aba:	47 95       	ror	r20
     abc:	b6 94       	lsr	r11
     abe:	a7 94       	ror	r10
     ac0:	97 94       	ror	r9
     ac2:	87 94       	ror	r8
     ac4:	47 95       	ror	r20
     ac6:	b6 94       	lsr	r11
     ac8:	a7 94       	ror	r10
     aca:	97 94       	ror	r9
     acc:	87 94       	ror	r8
     ace:	47 95       	ror	r20
     ad0:	b4 26       	eor	r11, r20
     ad2:	70 26       	eor	r7, r16
     ad4:	41 26       	eor	r4, r17
     ad6:	52 26       	eor	r5, r18
     ad8:	63 26       	eor	r6, r19
     ada:	41 91       	ld	r20, Z+
     adc:	51 91       	ld	r21, Z+
     ade:	61 91       	ld	r22, Z+
     ae0:	71 91       	ld	r23, Z+
     ae2:	41 25       	eor	r20, r1
     ae4:	52 25       	eor	r21, r2
     ae6:	63 25       	eor	r22, r3
     ae8:	70 25       	eor	r23, r0
     aea:	74 0e       	add	r7, r20
     aec:	45 1e       	adc	r4, r21
     aee:	56 1e       	adc	r5, r22
     af0:	67 1e       	adc	r6, r23
     af2:	44 27       	eor	r20, r20
     af4:	77 0c       	add	r7, r7
     af6:	44 1c       	adc	r4, r4
     af8:	55 1c       	adc	r5, r5
     afa:	66 1c       	adc	r6, r6
     afc:	44 1f       	adc	r20, r20
     afe:	77 0c       	add	r7, r7
     b00:	44 1c       	adc	r4, r4
     b02:	55 1c       	adc	r5, r5
     b04:	66 1c       	adc	r6, r6
     b06:	44 1f       	adc	r20, r20
     b08:	77 0c       	add	r7, r7
     b0a:	44 1c       	adc	r4, r4
     b0c:	55 1c       	adc	r5, r5
     b0e:	66 1c       	adc	r6, r6
     b10:	44 1f       	adc	r20, r20
     b12:	74 26       	eor	r7, r20
     b14:	10 26       	eor	r1, r16
     b16:	21 26       	eor	r2, r17
     b18:	32 26       	eor	r3, r18
     b1a:	03 26       	eor	r0, r19
     b1c:	41 91       	ld	r20, Z+
     b1e:	51 91       	ld	r21, Z+
     b20:	61 91       	ld	r22, Z+
     b22:	71 91       	ld	r23, Z+
     b24:	4c 25       	eor	r20, r12
     b26:	5d 25       	eor	r21, r13
     b28:	6e 25       	eor	r22, r14
     b2a:	7f 25       	eor	r23, r15
     b2c:	14 0e       	add	r1, r20
     b2e:	25 1e       	adc	r2, r21
     b30:	36 1e       	adc	r3, r22
     b32:	07 1e       	adc	r0, r23
     b34:	44 27       	eor	r20, r20
     b36:	11 0c       	add	r1, r1
     b38:	22 1c       	adc	r2, r2
     b3a:	33 1c       	adc	r3, r3
     b3c:	00 1c       	adc	r0, r0
     b3e:	44 1f       	adc	r20, r20
     b40:	14 26       	eor	r1, r20
     b42:	01 91       	ld	r16, Z+
     b44:	11 91       	ld	r17, Z+
     b46:	21 91       	ld	r18, Z+
     b48:	31 91       	ld	r19, Z+
     b4a:	c0 26       	eor	r12, r16
     b4c:	d1 26       	eor	r13, r17
     b4e:	e2 26       	eor	r14, r18
     b50:	f3 26       	eor	r15, r19
     b52:	41 91       	ld	r20, Z+
     b54:	51 91       	ld	r21, Z+
     b56:	61 91       	ld	r22, Z+
     b58:	71 91       	ld	r23, Z+
     b5a:	48 25       	eor	r20, r8
     b5c:	59 25       	eor	r21, r9
     b5e:	6a 25       	eor	r22, r10
     b60:	7b 25       	eor	r23, r11
     b62:	c4 0e       	add	r12, r20
     b64:	d5 1e       	adc	r13, r21
     b66:	e6 1e       	adc	r14, r22
     b68:	f7 1e       	adc	r15, r23
     b6a:	44 27       	eor	r20, r20
     b6c:	f6 94       	lsr	r15
     b6e:	e7 94       	ror	r14
     b70:	d7 94       	ror	r13
     b72:	c7 94       	ror	r12
     b74:	47 95       	ror	r20
     b76:	f6 94       	lsr	r15
     b78:	e7 94       	ror	r14
     b7a:	d7 94       	ror	r13
     b7c:	c7 94       	ror	r12
     b7e:	47 95       	ror	r20
     b80:	f6 94       	lsr	r15
     b82:	e7 94       	ror	r14
     b84:	d7 94       	ror	r13
     b86:	c7 94       	ror	r12
     b88:	47 95       	ror	r20
     b8a:	f4 26       	eor	r15, r20
     b8c:	80 26       	eor	r8, r16
     b8e:	91 26       	eor	r9, r17
     b90:	a2 26       	eor	r10, r18
     b92:	b3 26       	eor	r11, r19
     b94:	41 91       	ld	r20, Z+
     b96:	51 91       	ld	r21, Z+
     b98:	61 91       	ld	r22, Z+
     b9a:	71 91       	ld	r23, Z+
     b9c:	44 25       	eor	r20, r4
     b9e:	55 25       	eor	r21, r5
     ba0:	66 25       	eor	r22, r6
     ba2:	77 25       	eor	r23, r7
     ba4:	84 0e       	add	r8, r20
     ba6:	95 1e       	adc	r9, r21
     ba8:	a6 1e       	adc	r10, r22
     baa:	b7 1e       	adc	r11, r23
     bac:	44 27       	eor	r20, r20
     bae:	88 0c       	add	r8, r8
     bb0:	99 1c       	adc	r9, r9
     bb2:	aa 1c       	adc	r10, r10
     bb4:	bb 1c       	adc	r11, r11
     bb6:	44 1f       	adc	r20, r20
     bb8:	88 0c       	add	r8, r8
     bba:	99 1c       	adc	r9, r9
     bbc:	aa 1c       	adc	r10, r10
     bbe:	bb 1c       	adc	r11, r11
     bc0:	44 1f       	adc	r20, r20
     bc2:	88 0c       	add	r8, r8
     bc4:	99 1c       	adc	r9, r9
     bc6:	aa 1c       	adc	r10, r10
     bc8:	bb 1c       	adc	r11, r11
     bca:	44 1f       	adc	r20, r20
     bcc:	84 26       	eor	r8, r20
     bce:	40 26       	eor	r4, r16
     bd0:	51 26       	eor	r5, r17
     bd2:	62 26       	eor	r6, r18
     bd4:	73 26       	eor	r7, r19
     bd6:	41 91       	ld	r20, Z+
     bd8:	51 91       	ld	r21, Z+
     bda:	61 91       	ld	r22, Z+
     bdc:	71 91       	ld	r23, Z+
     bde:	40 25       	eor	r20, r0
     be0:	51 25       	eor	r21, r1
     be2:	62 25       	eor	r22, r2
     be4:	73 25       	eor	r23, r3
     be6:	44 0e       	add	r4, r20
     be8:	55 1e       	adc	r5, r21
     bea:	66 1e       	adc	r6, r22
     bec:	77 1e       	adc	r7, r23
     bee:	44 27       	eor	r20, r20
     bf0:	44 0c       	add	r4, r4
     bf2:	55 1c       	adc	r5, r5
     bf4:	66 1c       	adc	r6, r6
     bf6:	77 1c       	adc	r7, r7
     bf8:	44 1f       	adc	r20, r20
     bfa:	44 26       	eor	r4, r20
     bfc:	01 91       	ld	r16, Z+
     bfe:	11 91       	ld	r17, Z+
     c00:	21 91       	ld	r18, Z+
     c02:	31 91       	ld	r19, Z+
     c04:	00 26       	eor	r0, r16
     c06:	11 26       	eor	r1, r17
     c08:	22 26       	eor	r2, r18
     c0a:	33 26       	eor	r3, r19
     c0c:	41 91       	ld	r20, Z+
     c0e:	51 91       	ld	r21, Z+
     c10:	61 91       	ld	r22, Z+
     c12:	71 91       	ld	r23, Z+
     c14:	4c 25       	eor	r20, r12
     c16:	5d 25       	eor	r21, r13
     c18:	6e 25       	eor	r22, r14
     c1a:	7f 25       	eor	r23, r15
     c1c:	04 0e       	add	r0, r20
     c1e:	15 1e       	adc	r1, r21
     c20:	26 1e       	adc	r2, r22
     c22:	37 1e       	adc	r3, r23
     c24:	44 27       	eor	r20, r20
     c26:	36 94       	lsr	r3
     c28:	27 94       	ror	r2
     c2a:	17 94       	ror	r1
     c2c:	07 94       	ror	r0
     c2e:	47 95       	ror	r20
     c30:	36 94       	lsr	r3
     c32:	27 94       	ror	r2
     c34:	17 94       	ror	r1
     c36:	07 94       	ror	r0
     c38:	47 95       	ror	r20
     c3a:	36 94       	lsr	r3
     c3c:	27 94       	ror	r2
     c3e:	17 94       	ror	r1
     c40:	07 94       	ror	r0
     c42:	47 95       	ror	r20
     c44:	34 26       	eor	r3, r20
     c46:	c0 26       	eor	r12, r16
     c48:	d1 26       	eor	r13, r17
     c4a:	e2 26       	eor	r14, r18
     c4c:	f3 26       	eor	r15, r19
     c4e:	41 91       	ld	r20, Z+
     c50:	51 91       	ld	r21, Z+
     c52:	61 91       	ld	r22, Z+
     c54:	71 91       	ld	r23, Z+
     c56:	49 25       	eor	r20, r9
     c58:	5a 25       	eor	r21, r10
     c5a:	6b 25       	eor	r22, r11
     c5c:	78 25       	eor	r23, r8
     c5e:	c4 0e       	add	r12, r20
     c60:	d5 1e       	adc	r13, r21
     c62:	e6 1e       	adc	r14, r22
     c64:	f7 1e       	adc	r15, r23
     c66:	44 27       	eor	r20, r20
     c68:	cc 0c       	add	r12, r12
     c6a:	dd 1c       	adc	r13, r13
     c6c:	ee 1c       	adc	r14, r14
     c6e:	ff 1c       	adc	r15, r15
     c70:	44 1f       	adc	r20, r20
     c72:	cc 0c       	add	r12, r12
     c74:	dd 1c       	adc	r13, r13
     c76:	ee 1c       	adc	r14, r14
     c78:	ff 1c       	adc	r15, r15
     c7a:	44 1f       	adc	r20, r20
     c7c:	cc 0c       	add	r12, r12
     c7e:	dd 1c       	adc	r13, r13
     c80:	ee 1c       	adc	r14, r14
     c82:	ff 1c       	adc	r15, r15
     c84:	44 1f       	adc	r20, r20
     c86:	c4 26       	eor	r12, r20
     c88:	90 26       	eor	r9, r16
     c8a:	a1 26       	eor	r10, r17
     c8c:	b2 26       	eor	r11, r18
     c8e:	83 26       	eor	r8, r19
     c90:	41 91       	ld	r20, Z+
     c92:	51 91       	ld	r21, Z+
     c94:	61 91       	ld	r22, Z+
     c96:	71 91       	ld	r23, Z+
     c98:	47 25       	eor	r20, r7
     c9a:	54 25       	eor	r21, r4
     c9c:	65 25       	eor	r22, r5
     c9e:	76 25       	eor	r23, r6
     ca0:	94 0e       	add	r9, r20
     ca2:	a5 1e       	adc	r10, r21
     ca4:	b6 1e       	adc	r11, r22
     ca6:	87 1e       	adc	r8, r23
     ca8:	44 27       	eor	r20, r20
     caa:	99 0c       	add	r9, r9
     cac:	aa 1c       	adc	r10, r10
     cae:	bb 1c       	adc	r11, r11
     cb0:	88 1c       	adc	r8, r8
     cb2:	44 1f       	adc	r20, r20
     cb4:	94 26       	eor	r9, r20
     cb6:	01 91       	ld	r16, Z+
     cb8:	11 91       	ld	r17, Z+
     cba:	21 91       	ld	r18, Z+
     cbc:	31 91       	ld	r19, Z+
     cbe:	70 26       	eor	r7, r16
     cc0:	41 26       	eor	r4, r17
     cc2:	52 26       	eor	r5, r18
     cc4:	63 26       	eor	r6, r19
     cc6:	41 91       	ld	r20, Z+
     cc8:	51 91       	ld	r21, Z+
     cca:	61 91       	ld	r22, Z+
     ccc:	71 91       	ld	r23, Z+
     cce:	40 25       	eor	r20, r0
     cd0:	51 25       	eor	r21, r1
     cd2:	62 25       	eor	r22, r2
     cd4:	73 25       	eor	r23, r3
     cd6:	74 0e       	add	r7, r20
     cd8:	45 1e       	adc	r4, r21
     cda:	56 1e       	adc	r5, r22
     cdc:	67 1e       	adc	r6, r23
     cde:	44 27       	eor	r20, r20
     ce0:	66 94       	lsr	r6
     ce2:	57 94       	ror	r5
     ce4:	47 94       	ror	r4
     ce6:	77 94       	ror	r7
     ce8:	47 95       	ror	r20
     cea:	66 94       	lsr	r6
     cec:	57 94       	ror	r5
     cee:	47 94       	ror	r4
     cf0:	77 94       	ror	r7
     cf2:	47 95       	ror	r20
     cf4:	66 94       	lsr	r6
     cf6:	57 94       	ror	r5
     cf8:	47 94       	ror	r4
     cfa:	77 94       	ror	r7
     cfc:	47 95       	ror	r20
     cfe:	64 26       	eor	r6, r20
     d00:	00 26       	eor	r0, r16
     d02:	11 26       	eor	r1, r17
     d04:	22 26       	eor	r2, r18
     d06:	33 26       	eor	r3, r19
     d08:	41 91       	ld	r20, Z+
     d0a:	51 91       	ld	r21, Z+
     d0c:	61 91       	ld	r22, Z+
     d0e:	71 91       	ld	r23, Z+
     d10:	4d 25       	eor	r20, r13
     d12:	5e 25       	eor	r21, r14
     d14:	6f 25       	eor	r22, r15
     d16:	7c 25       	eor	r23, r12
     d18:	04 0e       	add	r0, r20
     d1a:	15 1e       	adc	r1, r21
     d1c:	26 1e       	adc	r2, r22
     d1e:	37 1e       	adc	r3, r23
     d20:	44 27       	eor	r20, r20
     d22:	00 0c       	add	r0, r0
     d24:	11 1c       	adc	r1, r1
     d26:	22 1c       	adc	r2, r2
     d28:	33 1c       	adc	r3, r3
     d2a:	44 1f       	adc	r20, r20
     d2c:	00 0c       	add	r0, r0
     d2e:	11 1c       	adc	r1, r1
     d30:	22 1c       	adc	r2, r2
     d32:	33 1c       	adc	r3, r3
     d34:	44 1f       	adc	r20, r20
     d36:	00 0c       	add	r0, r0
     d38:	11 1c       	adc	r1, r1
     d3a:	22 1c       	adc	r2, r2
     d3c:	33 1c       	adc	r3, r3
     d3e:	44 1f       	adc	r20, r20
     d40:	04 26       	eor	r0, r20
     d42:	d0 26       	eor	r13, r16
     d44:	e1 26       	eor	r14, r17
     d46:	f2 26       	eor	r15, r18
     d48:	c3 26       	eor	r12, r19
     d4a:	41 91       	ld	r20, Z+
     d4c:	51 91       	ld	r21, Z+
     d4e:	61 91       	ld	r22, Z+
     d50:	71 91       	ld	r23, Z+
     d52:	48 25       	eor	r20, r8
     d54:	59 25       	eor	r21, r9
     d56:	6a 25       	eor	r22, r10
     d58:	7b 25       	eor	r23, r11
     d5a:	d4 0e       	add	r13, r20
     d5c:	e5 1e       	adc	r14, r21
     d5e:	f6 1e       	adc	r15, r22
     d60:	c7 1e       	adc	r12, r23
     d62:	44 27       	eor	r20, r20
     d64:	dd 0c       	add	r13, r13
     d66:	ee 1c       	adc	r14, r14
     d68:	ff 1c       	adc	r15, r15
     d6a:	cc 1c       	adc	r12, r12
     d6c:	44 1f       	adc	r20, r20
     d6e:	d4 26       	eor	r13, r20
     d70:	01 91       	ld	r16, Z+
     d72:	11 91       	ld	r17, Z+
     d74:	21 91       	ld	r18, Z+
     d76:	31 91       	ld	r19, Z+
     d78:	80 26       	eor	r8, r16
     d7a:	91 26       	eor	r9, r17
     d7c:	a2 26       	eor	r10, r18
     d7e:	b3 26       	eor	r11, r19
     d80:	41 91       	ld	r20, Z+
     d82:	51 91       	ld	r21, Z+
     d84:	61 91       	ld	r22, Z+
     d86:	71 91       	ld	r23, Z+
     d88:	47 25       	eor	r20, r7
     d8a:	54 25       	eor	r21, r4
     d8c:	65 25       	eor	r22, r5
     d8e:	76 25       	eor	r23, r6
     d90:	84 0e       	add	r8, r20
     d92:	95 1e       	adc	r9, r21
     d94:	a6 1e       	adc	r10, r22
     d96:	b7 1e       	adc	r11, r23
     d98:	44 27       	eor	r20, r20
     d9a:	b6 94       	lsr	r11
     d9c:	a7 94       	ror	r10
     d9e:	97 94       	ror	r9
     da0:	87 94       	ror	r8
     da2:	47 95       	ror	r20
     da4:	b6 94       	lsr	r11
     da6:	a7 94       	ror	r10
     da8:	97 94       	ror	r9
     daa:	87 94       	ror	r8
     dac:	47 95       	ror	r20
     dae:	b6 94       	lsr	r11
     db0:	a7 94       	ror	r10
     db2:	97 94       	ror	r9
     db4:	87 94       	ror	r8
     db6:	47 95       	ror	r20
     db8:	b4 26       	eor	r11, r20
     dba:	70 26       	eor	r7, r16
     dbc:	41 26       	eor	r4, r17
     dbe:	52 26       	eor	r5, r18
     dc0:	63 26       	eor	r6, r19
     dc2:	41 91       	ld	r20, Z+
     dc4:	51 91       	ld	r21, Z+
     dc6:	61 91       	ld	r22, Z+
     dc8:	71 91       	ld	r23, Z+
     dca:	41 25       	eor	r20, r1
     dcc:	52 25       	eor	r21, r2
     dce:	63 25       	eor	r22, r3
     dd0:	70 25       	eor	r23, r0
     dd2:	74 0e       	add	r7, r20
     dd4:	45 1e       	adc	r4, r21
     dd6:	56 1e       	adc	r5, r22
     dd8:	67 1e       	adc	r6, r23
     dda:	44 27       	eor	r20, r20
     ddc:	77 0c       	add	r7, r7
     dde:	44 1c       	adc	r4, r4
     de0:	55 1c       	adc	r5, r5
     de2:	66 1c       	adc	r6, r6
     de4:	44 1f       	adc	r20, r20
     de6:	77 0c       	add	r7, r7
     de8:	44 1c       	adc	r4, r4
     dea:	55 1c       	adc	r5, r5
     dec:	66 1c       	adc	r6, r6
     dee:	44 1f       	adc	r20, r20
     df0:	77 0c       	add	r7, r7
     df2:	44 1c       	adc	r4, r4
     df4:	55 1c       	adc	r5, r5
     df6:	66 1c       	adc	r6, r6
     df8:	44 1f       	adc	r20, r20
     dfa:	74 26       	eor	r7, r20
     dfc:	10 26       	eor	r1, r16
     dfe:	21 26       	eor	r2, r17
     e00:	32 26       	eor	r3, r18
     e02:	03 26       	eor	r0, r19
     e04:	41 91       	ld	r20, Z+
     e06:	51 91       	ld	r21, Z+
     e08:	61 91       	ld	r22, Z+
     e0a:	71 91       	ld	r23, Z+
     e0c:	4c 25       	eor	r20, r12
     e0e:	5d 25       	eor	r21, r13
     e10:	6e 25       	eor	r22, r14
     e12:	7f 25       	eor	r23, r15
     e14:	14 0e       	add	r1, r20
     e16:	25 1e       	adc	r2, r21
     e18:	36 1e       	adc	r3, r22
     e1a:	07 1e       	adc	r0, r23
     e1c:	44 27       	eor	r20, r20
     e1e:	11 0c       	add	r1, r1
     e20:	22 1c       	adc	r2, r2
     e22:	33 1c       	adc	r3, r3
     e24:	00 1c       	adc	r0, r0
     e26:	44 1f       	adc	r20, r20
     e28:	14 26       	eor	r1, r20
     e2a:	01 91       	ld	r16, Z+
     e2c:	11 91       	ld	r17, Z+
     e2e:	21 91       	ld	r18, Z+
     e30:	31 91       	ld	r19, Z+
     e32:	c0 26       	eor	r12, r16
     e34:	d1 26       	eor	r13, r17
     e36:	e2 26       	eor	r14, r18
     e38:	f3 26       	eor	r15, r19
     e3a:	41 91       	ld	r20, Z+
     e3c:	51 91       	ld	r21, Z+
     e3e:	61 91       	ld	r22, Z+
     e40:	71 91       	ld	r23, Z+
     e42:	48 25       	eor	r20, r8
     e44:	59 25       	eor	r21, r9
     e46:	6a 25       	eor	r22, r10
     e48:	7b 25       	eor	r23, r11
     e4a:	c4 0e       	add	r12, r20
     e4c:	d5 1e       	adc	r13, r21
     e4e:	e6 1e       	adc	r14, r22
     e50:	f7 1e       	adc	r15, r23
     e52:	44 27       	eor	r20, r20
     e54:	f6 94       	lsr	r15
     e56:	e7 94       	ror	r14
     e58:	d7 94       	ror	r13
     e5a:	c7 94       	ror	r12
     e5c:	47 95       	ror	r20
     e5e:	f6 94       	lsr	r15
     e60:	e7 94       	ror	r14
     e62:	d7 94       	ror	r13
     e64:	c7 94       	ror	r12
     e66:	47 95       	ror	r20
     e68:	f6 94       	lsr	r15
     e6a:	e7 94       	ror	r14
     e6c:	d7 94       	ror	r13
     e6e:	c7 94       	ror	r12
     e70:	47 95       	ror	r20
     e72:	f4 26       	eor	r15, r20
     e74:	80 26       	eor	r8, r16
     e76:	91 26       	eor	r9, r17
     e78:	a2 26       	eor	r10, r18
     e7a:	b3 26       	eor	r11, r19
     e7c:	41 91       	ld	r20, Z+
     e7e:	51 91       	ld	r21, Z+
     e80:	61 91       	ld	r22, Z+
     e82:	71 91       	ld	r23, Z+
     e84:	44 25       	eor	r20, r4
     e86:	55 25       	eor	r21, r5
     e88:	66 25       	eor	r22, r6
     e8a:	77 25       	eor	r23, r7
     e8c:	84 0e       	add	r8, r20
     e8e:	95 1e       	adc	r9, r21
     e90:	a6 1e       	adc	r10, r22
     e92:	b7 1e       	adc	r11, r23
     e94:	44 27       	eor	r20, r20
     e96:	88 0c       	add	r8, r8
     e98:	99 1c       	adc	r9, r9
     e9a:	aa 1c       	adc	r10, r10
     e9c:	bb 1c       	adc	r11, r11
     e9e:	44 1f       	adc	r20, r20
     ea0:	88 0c       	add	r8, r8
     ea2:	99 1c       	adc	r9, r9
     ea4:	aa 1c       	adc	r10, r10
     ea6:	bb 1c       	adc	r11, r11
     ea8:	44 1f       	adc	r20, r20
     eaa:	88 0c       	add	r8, r8
     eac:	99 1c       	adc	r9, r9
     eae:	aa 1c       	adc	r10, r10
     eb0:	bb 1c       	adc	r11, r11
     eb2:	44 1f       	adc	r20, r20
     eb4:	84 26       	eor	r8, r20
     eb6:	40 26       	eor	r4, r16
     eb8:	51 26       	eor	r5, r17
     eba:	62 26       	eor	r6, r18
     ebc:	73 26       	eor	r7, r19
     ebe:	41 91       	ld	r20, Z+
     ec0:	51 91       	ld	r21, Z+
     ec2:	61 91       	ld	r22, Z+
     ec4:	71 91       	ld	r23, Z+
     ec6:	40 25       	eor	r20, r0
     ec8:	51 25       	eor	r21, r1
     eca:	62 25       	eor	r22, r2
     ecc:	73 25       	eor	r23, r3
     ece:	44 0e       	add	r4, r20
     ed0:	55 1e       	adc	r5, r21
     ed2:	66 1e       	adc	r6, r22
     ed4:	77 1e       	adc	r7, r23
     ed6:	44 27       	eor	r20, r20
     ed8:	44 0c       	add	r4, r4
     eda:	55 1c       	adc	r5, r5
     edc:	66 1c       	adc	r6, r6
     ede:	77 1c       	adc	r7, r7
     ee0:	44 1f       	adc	r20, r20
     ee2:	44 26       	eor	r4, r20
     ee4:	01 91       	ld	r16, Z+
     ee6:	11 91       	ld	r17, Z+
     ee8:	21 91       	ld	r18, Z+
     eea:	31 91       	ld	r19, Z+
     eec:	00 26       	eor	r0, r16
     eee:	11 26       	eor	r1, r17
     ef0:	22 26       	eor	r2, r18
     ef2:	33 26       	eor	r3, r19
     ef4:	41 91       	ld	r20, Z+
     ef6:	51 91       	ld	r21, Z+
     ef8:	61 91       	ld	r22, Z+
     efa:	71 91       	ld	r23, Z+
     efc:	4c 25       	eor	r20, r12
     efe:	5d 25       	eor	r21, r13
     f00:	6e 25       	eor	r22, r14
     f02:	7f 25       	eor	r23, r15
     f04:	04 0e       	add	r0, r20
     f06:	15 1e       	adc	r1, r21
     f08:	26 1e       	adc	r2, r22
     f0a:	37 1e       	adc	r3, r23
     f0c:	44 27       	eor	r20, r20
     f0e:	36 94       	lsr	r3
     f10:	27 94       	ror	r2
     f12:	17 94       	ror	r1
     f14:	07 94       	ror	r0
     f16:	47 95       	ror	r20
     f18:	36 94       	lsr	r3
     f1a:	27 94       	ror	r2
     f1c:	17 94       	ror	r1
     f1e:	07 94       	ror	r0
     f20:	47 95       	ror	r20
     f22:	36 94       	lsr	r3
     f24:	27 94       	ror	r2
     f26:	17 94       	ror	r1
     f28:	07 94       	ror	r0
     f2a:	47 95       	ror	r20
     f2c:	34 26       	eor	r3, r20
     f2e:	c0 26       	eor	r12, r16
     f30:	d1 26       	eor	r13, r17
     f32:	e2 26       	eor	r14, r18
     f34:	f3 26       	eor	r15, r19
     f36:	41 91       	ld	r20, Z+
     f38:	51 91       	ld	r21, Z+
     f3a:	61 91       	ld	r22, Z+
     f3c:	71 91       	ld	r23, Z+
     f3e:	49 25       	eor	r20, r9
     f40:	5a 25       	eor	r21, r10
     f42:	6b 25       	eor	r22, r11
     f44:	78 25       	eor	r23, r8
     f46:	c4 0e       	add	r12, r20
     f48:	d5 1e       	adc	r13, r21
     f4a:	e6 1e       	adc	r14, r22
     f4c:	f7 1e       	adc	r15, r23
     f4e:	44 27       	eor	r20, r20
     f50:	cc 0c       	add	r12, r12
     f52:	dd 1c       	adc	r13, r13
     f54:	ee 1c       	adc	r14, r14
     f56:	ff 1c       	adc	r15, r15
     f58:	44 1f       	adc	r20, r20
     f5a:	cc 0c       	add	r12, r12
     f5c:	dd 1c       	adc	r13, r13
     f5e:	ee 1c       	adc	r14, r14
     f60:	ff 1c       	adc	r15, r15
     f62:	44 1f       	adc	r20, r20
     f64:	cc 0c       	add	r12, r12
     f66:	dd 1c       	adc	r13, r13
     f68:	ee 1c       	adc	r14, r14
     f6a:	ff 1c       	adc	r15, r15
     f6c:	44 1f       	adc	r20, r20
     f6e:	c4 26       	eor	r12, r20
     f70:	90 26       	eor	r9, r16
     f72:	a1 26       	eor	r10, r17
     f74:	b2 26       	eor	r11, r18
     f76:	83 26       	eor	r8, r19
     f78:	41 91       	ld	r20, Z+
     f7a:	51 91       	ld	r21, Z+
     f7c:	61 91       	ld	r22, Z+
     f7e:	71 91       	ld	r23, Z+
     f80:	47 25       	eor	r20, r7
     f82:	54 25       	eor	r21, r4
     f84:	65 25       	eor	r22, r5
     f86:	76 25       	eor	r23, r6
     f88:	94 0e       	add	r9, r20
     f8a:	a5 1e       	adc	r10, r21
     f8c:	b6 1e       	adc	r11, r22
     f8e:	87 1e       	adc	r8, r23
     f90:	44 27       	eor	r20, r20
     f92:	99 0c       	add	r9, r9
     f94:	aa 1c       	adc	r10, r10
     f96:	bb 1c       	adc	r11, r11
     f98:	88 1c       	adc	r8, r8
     f9a:	44 1f       	adc	r20, r20
     f9c:	94 26       	eor	r9, r20
     f9e:	01 91       	ld	r16, Z+
     fa0:	11 91       	ld	r17, Z+
     fa2:	21 91       	ld	r18, Z+
     fa4:	31 91       	ld	r19, Z+
     fa6:	70 26       	eor	r7, r16
     fa8:	41 26       	eor	r4, r17
     faa:	52 26       	eor	r5, r18
     fac:	63 26       	eor	r6, r19
     fae:	41 91       	ld	r20, Z+
     fb0:	51 91       	ld	r21, Z+
     fb2:	61 91       	ld	r22, Z+
     fb4:	71 91       	ld	r23, Z+
     fb6:	40 25       	eor	r20, r0
     fb8:	51 25       	eor	r21, r1
     fba:	62 25       	eor	r22, r2
     fbc:	73 25       	eor	r23, r3
     fbe:	74 0e       	add	r7, r20
     fc0:	45 1e       	adc	r4, r21
     fc2:	56 1e       	adc	r5, r22
     fc4:	67 1e       	adc	r6, r23
     fc6:	44 27       	eor	r20, r20
     fc8:	66 94       	lsr	r6
     fca:	57 94       	ror	r5
     fcc:	47 94       	ror	r4
     fce:	77 94       	ror	r7
     fd0:	47 95       	ror	r20
     fd2:	66 94       	lsr	r6
     fd4:	57 94       	ror	r5
     fd6:	47 94       	ror	r4
     fd8:	77 94       	ror	r7
     fda:	47 95       	ror	r20
     fdc:	66 94       	lsr	r6
     fde:	57 94       	ror	r5
     fe0:	47 94       	ror	r4
     fe2:	77 94       	ror	r7
     fe4:	47 95       	ror	r20
     fe6:	64 26       	eor	r6, r20
     fe8:	00 26       	eor	r0, r16
     fea:	11 26       	eor	r1, r17
     fec:	22 26       	eor	r2, r18
     fee:	33 26       	eor	r3, r19
     ff0:	41 91       	ld	r20, Z+
     ff2:	51 91       	ld	r21, Z+
     ff4:	61 91       	ld	r22, Z+
     ff6:	71 91       	ld	r23, Z+
     ff8:	4d 25       	eor	r20, r13
     ffa:	5e 25       	eor	r21, r14
     ffc:	6f 25       	eor	r22, r15
     ffe:	7c 25       	eor	r23, r12
    1000:	04 0e       	add	r0, r20
    1002:	15 1e       	adc	r1, r21
    1004:	26 1e       	adc	r2, r22
    1006:	37 1e       	adc	r3, r23
    1008:	44 27       	eor	r20, r20
    100a:	00 0c       	add	r0, r0
    100c:	11 1c       	adc	r1, r1
    100e:	22 1c       	adc	r2, r2
    1010:	33 1c       	adc	r3, r3
    1012:	44 1f       	adc	r20, r20
    1014:	00 0c       	add	r0, r0
    1016:	11 1c       	adc	r1, r1
    1018:	22 1c       	adc	r2, r2
    101a:	33 1c       	adc	r3, r3
    101c:	44 1f       	adc	r20, r20
    101e:	00 0c       	add	r0, r0
    1020:	11 1c       	adc	r1, r1
    1022:	22 1c       	adc	r2, r2
    1024:	33 1c       	adc	r3, r3
    1026:	44 1f       	adc	r20, r20
    1028:	04 26       	eor	r0, r20
    102a:	d0 26       	eor	r13, r16
    102c:	e1 26       	eor	r14, r17
    102e:	f2 26       	eor	r15, r18
    1030:	c3 26       	eor	r12, r19
    1032:	41 91       	ld	r20, Z+
    1034:	51 91       	ld	r21, Z+
    1036:	61 91       	ld	r22, Z+
    1038:	71 91       	ld	r23, Z+
    103a:	48 25       	eor	r20, r8
    103c:	59 25       	eor	r21, r9
    103e:	6a 25       	eor	r22, r10
    1040:	7b 25       	eor	r23, r11
    1042:	d4 0e       	add	r13, r20
    1044:	e5 1e       	adc	r14, r21
    1046:	f6 1e       	adc	r15, r22
    1048:	c7 1e       	adc	r12, r23
    104a:	44 27       	eor	r20, r20
    104c:	dd 0c       	add	r13, r13
    104e:	ee 1c       	adc	r14, r14
    1050:	ff 1c       	adc	r15, r15
    1052:	cc 1c       	adc	r12, r12
    1054:	44 1f       	adc	r20, r20
    1056:	d4 26       	eor	r13, r20
    1058:	01 91       	ld	r16, Z+
    105a:	11 91       	ld	r17, Z+
    105c:	21 91       	ld	r18, Z+
    105e:	31 91       	ld	r19, Z+
    1060:	80 26       	eor	r8, r16
    1062:	91 26       	eor	r9, r17
    1064:	a2 26       	eor	r10, r18
    1066:	b3 26       	eor	r11, r19
    1068:	41 91       	ld	r20, Z+
    106a:	51 91       	ld	r21, Z+
    106c:	61 91       	ld	r22, Z+
    106e:	71 91       	ld	r23, Z+
    1070:	47 25       	eor	r20, r7
    1072:	54 25       	eor	r21, r4
    1074:	65 25       	eor	r22, r5
    1076:	76 25       	eor	r23, r6
    1078:	84 0e       	add	r8, r20
    107a:	95 1e       	adc	r9, r21
    107c:	a6 1e       	adc	r10, r22
    107e:	b7 1e       	adc	r11, r23
    1080:	44 27       	eor	r20, r20
    1082:	b6 94       	lsr	r11
    1084:	a7 94       	ror	r10
    1086:	97 94       	ror	r9
    1088:	87 94       	ror	r8
    108a:	47 95       	ror	r20
    108c:	b6 94       	lsr	r11
    108e:	a7 94       	ror	r10
    1090:	97 94       	ror	r9
    1092:	87 94       	ror	r8
    1094:	47 95       	ror	r20
    1096:	b6 94       	lsr	r11
    1098:	a7 94       	ror	r10
    109a:	97 94       	ror	r9
    109c:	87 94       	ror	r8
    109e:	47 95       	ror	r20
    10a0:	b4 26       	eor	r11, r20
    10a2:	70 26       	eor	r7, r16
    10a4:	41 26       	eor	r4, r17
    10a6:	52 26       	eor	r5, r18
    10a8:	63 26       	eor	r6, r19
    10aa:	41 91       	ld	r20, Z+
    10ac:	51 91       	ld	r21, Z+
    10ae:	61 91       	ld	r22, Z+
    10b0:	71 91       	ld	r23, Z+
    10b2:	41 25       	eor	r20, r1
    10b4:	52 25       	eor	r21, r2
    10b6:	63 25       	eor	r22, r3
    10b8:	70 25       	eor	r23, r0
    10ba:	74 0e       	add	r7, r20
    10bc:	45 1e       	adc	r4, r21
    10be:	56 1e       	adc	r5, r22
    10c0:	67 1e       	adc	r6, r23
    10c2:	44 27       	eor	r20, r20
    10c4:	77 0c       	add	r7, r7
    10c6:	44 1c       	adc	r4, r4
    10c8:	55 1c       	adc	r5, r5
    10ca:	66 1c       	adc	r6, r6
    10cc:	44 1f       	adc	r20, r20
    10ce:	77 0c       	add	r7, r7
    10d0:	44 1c       	adc	r4, r4
    10d2:	55 1c       	adc	r5, r5
    10d4:	66 1c       	adc	r6, r6
    10d6:	44 1f       	adc	r20, r20
    10d8:	77 0c       	add	r7, r7
    10da:	44 1c       	adc	r4, r4
    10dc:	55 1c       	adc	r5, r5
    10de:	66 1c       	adc	r6, r6
    10e0:	44 1f       	adc	r20, r20
    10e2:	74 26       	eor	r7, r20
    10e4:	10 26       	eor	r1, r16
    10e6:	21 26       	eor	r2, r17
    10e8:	32 26       	eor	r3, r18
    10ea:	03 26       	eor	r0, r19
    10ec:	41 91       	ld	r20, Z+
    10ee:	51 91       	ld	r21, Z+
    10f0:	61 91       	ld	r22, Z+
    10f2:	71 91       	ld	r23, Z+
    10f4:	4c 25       	eor	r20, r12
    10f6:	5d 25       	eor	r21, r13
    10f8:	6e 25       	eor	r22, r14
    10fa:	7f 25       	eor	r23, r15
    10fc:	14 0e       	add	r1, r20
    10fe:	25 1e       	adc	r2, r21
    1100:	36 1e       	adc	r3, r22
    1102:	07 1e       	adc	r0, r23
    1104:	44 27       	eor	r20, r20
    1106:	11 0c       	add	r1, r1
    1108:	22 1c       	adc	r2, r2
    110a:	33 1c       	adc	r3, r3
    110c:	00 1c       	adc	r0, r0
    110e:	44 1f       	adc	r20, r20
    1110:	14 26       	eor	r1, r20
    1112:	01 91       	ld	r16, Z+
    1114:	11 91       	ld	r17, Z+
    1116:	21 91       	ld	r18, Z+
    1118:	31 91       	ld	r19, Z+
    111a:	c0 26       	eor	r12, r16
    111c:	d1 26       	eor	r13, r17
    111e:	e2 26       	eor	r14, r18
    1120:	f3 26       	eor	r15, r19
    1122:	41 91       	ld	r20, Z+
    1124:	51 91       	ld	r21, Z+
    1126:	61 91       	ld	r22, Z+
    1128:	71 91       	ld	r23, Z+
    112a:	48 25       	eor	r20, r8
    112c:	59 25       	eor	r21, r9
    112e:	6a 25       	eor	r22, r10
    1130:	7b 25       	eor	r23, r11
    1132:	c4 0e       	add	r12, r20
    1134:	d5 1e       	adc	r13, r21
    1136:	e6 1e       	adc	r14, r22
    1138:	f7 1e       	adc	r15, r23
    113a:	44 27       	eor	r20, r20
    113c:	f6 94       	lsr	r15
    113e:	e7 94       	ror	r14
    1140:	d7 94       	ror	r13
    1142:	c7 94       	ror	r12
    1144:	47 95       	ror	r20
    1146:	f6 94       	lsr	r15
    1148:	e7 94       	ror	r14
    114a:	d7 94       	ror	r13
    114c:	c7 94       	ror	r12
    114e:	47 95       	ror	r20
    1150:	f6 94       	lsr	r15
    1152:	e7 94       	ror	r14
    1154:	d7 94       	ror	r13
    1156:	c7 94       	ror	r12
    1158:	47 95       	ror	r20
    115a:	f4 26       	eor	r15, r20
    115c:	80 26       	eor	r8, r16
    115e:	91 26       	eor	r9, r17
    1160:	a2 26       	eor	r10, r18
    1162:	b3 26       	eor	r11, r19
    1164:	41 91       	ld	r20, Z+
    1166:	51 91       	ld	r21, Z+
    1168:	61 91       	ld	r22, Z+
    116a:	71 91       	ld	r23, Z+
    116c:	44 25       	eor	r20, r4
    116e:	55 25       	eor	r21, r5
    1170:	66 25       	eor	r22, r6
    1172:	77 25       	eor	r23, r7
    1174:	84 0e       	add	r8, r20
    1176:	95 1e       	adc	r9, r21
    1178:	a6 1e       	adc	r10, r22
    117a:	b7 1e       	adc	r11, r23
    117c:	44 27       	eor	r20, r20
    117e:	88 0c       	add	r8, r8
    1180:	99 1c       	adc	r9, r9
    1182:	aa 1c       	adc	r10, r10
    1184:	bb 1c       	adc	r11, r11
    1186:	44 1f       	adc	r20, r20
    1188:	88 0c       	add	r8, r8
    118a:	99 1c       	adc	r9, r9
    118c:	aa 1c       	adc	r10, r10
    118e:	bb 1c       	adc	r11, r11
    1190:	44 1f       	adc	r20, r20
    1192:	88 0c       	add	r8, r8
    1194:	99 1c       	adc	r9, r9
    1196:	aa 1c       	adc	r10, r10
    1198:	bb 1c       	adc	r11, r11
    119a:	44 1f       	adc	r20, r20
    119c:	84 26       	eor	r8, r20
    119e:	40 26       	eor	r4, r16
    11a0:	51 26       	eor	r5, r17
    11a2:	62 26       	eor	r6, r18
    11a4:	73 26       	eor	r7, r19
    11a6:	41 91       	ld	r20, Z+
    11a8:	51 91       	ld	r21, Z+
    11aa:	61 91       	ld	r22, Z+
    11ac:	71 91       	ld	r23, Z+
    11ae:	40 25       	eor	r20, r0
    11b0:	51 25       	eor	r21, r1
    11b2:	62 25       	eor	r22, r2
    11b4:	73 25       	eor	r23, r3
    11b6:	44 0e       	add	r4, r20
    11b8:	55 1e       	adc	r5, r21
    11ba:	66 1e       	adc	r6, r22
    11bc:	77 1e       	adc	r7, r23
    11be:	44 27       	eor	r20, r20
    11c0:	44 0c       	add	r4, r4
    11c2:	55 1c       	adc	r5, r5
    11c4:	66 1c       	adc	r6, r6
    11c6:	77 1c       	adc	r7, r7
    11c8:	44 1f       	adc	r20, r20
    11ca:	44 26       	eor	r4, r20
    11cc:	01 91       	ld	r16, Z+
    11ce:	11 91       	ld	r17, Z+
    11d0:	21 91       	ld	r18, Z+
    11d2:	31 91       	ld	r19, Z+
    11d4:	00 26       	eor	r0, r16
    11d6:	11 26       	eor	r1, r17
    11d8:	22 26       	eor	r2, r18
    11da:	33 26       	eor	r3, r19
    11dc:	41 91       	ld	r20, Z+
    11de:	51 91       	ld	r21, Z+
    11e0:	61 91       	ld	r22, Z+
    11e2:	71 91       	ld	r23, Z+
    11e4:	4c 25       	eor	r20, r12
    11e6:	5d 25       	eor	r21, r13
    11e8:	6e 25       	eor	r22, r14
    11ea:	7f 25       	eor	r23, r15
    11ec:	04 0e       	add	r0, r20
    11ee:	15 1e       	adc	r1, r21
    11f0:	26 1e       	adc	r2, r22
    11f2:	37 1e       	adc	r3, r23
    11f4:	44 27       	eor	r20, r20
    11f6:	36 94       	lsr	r3
    11f8:	27 94       	ror	r2
    11fa:	17 94       	ror	r1
    11fc:	07 94       	ror	r0
    11fe:	47 95       	ror	r20
    1200:	36 94       	lsr	r3
    1202:	27 94       	ror	r2
    1204:	17 94       	ror	r1
    1206:	07 94       	ror	r0
    1208:	47 95       	ror	r20
    120a:	36 94       	lsr	r3
    120c:	27 94       	ror	r2
    120e:	17 94       	ror	r1
    1210:	07 94       	ror	r0
    1212:	47 95       	ror	r20
    1214:	34 26       	eor	r3, r20
    1216:	c0 26       	eor	r12, r16
    1218:	d1 26       	eor	r13, r17
    121a:	e2 26       	eor	r14, r18
    121c:	f3 26       	eor	r15, r19
    121e:	41 91       	ld	r20, Z+
    1220:	51 91       	ld	r21, Z+
    1222:	61 91       	ld	r22, Z+
    1224:	71 91       	ld	r23, Z+
    1226:	49 25       	eor	r20, r9
    1228:	5a 25       	eor	r21, r10
    122a:	6b 25       	eor	r22, r11
    122c:	78 25       	eor	r23, r8
    122e:	c4 0e       	add	r12, r20
    1230:	d5 1e       	adc	r13, r21
    1232:	e6 1e       	adc	r14, r22
    1234:	f7 1e       	adc	r15, r23
    1236:	44 27       	eor	r20, r20
    1238:	cc 0c       	add	r12, r12
    123a:	dd 1c       	adc	r13, r13
    123c:	ee 1c       	adc	r14, r14
    123e:	ff 1c       	adc	r15, r15
    1240:	44 1f       	adc	r20, r20
    1242:	cc 0c       	add	r12, r12
    1244:	dd 1c       	adc	r13, r13
    1246:	ee 1c       	adc	r14, r14
    1248:	ff 1c       	adc	r15, r15
    124a:	44 1f       	adc	r20, r20
    124c:	cc 0c       	add	r12, r12
    124e:	dd 1c       	adc	r13, r13
    1250:	ee 1c       	adc	r14, r14
    1252:	ff 1c       	adc	r15, r15
    1254:	44 1f       	adc	r20, r20
    1256:	c4 26       	eor	r12, r20
    1258:	90 26       	eor	r9, r16
    125a:	a1 26       	eor	r10, r17
    125c:	b2 26       	eor	r11, r18
    125e:	83 26       	eor	r8, r19
    1260:	41 91       	ld	r20, Z+
    1262:	51 91       	ld	r21, Z+
    1264:	61 91       	ld	r22, Z+
    1266:	71 91       	ld	r23, Z+
    1268:	47 25       	eor	r20, r7
    126a:	54 25       	eor	r21, r4
    126c:	65 25       	eor	r22, r5
    126e:	76 25       	eor	r23, r6
    1270:	94 0e       	add	r9, r20
    1272:	a5 1e       	adc	r10, r21
    1274:	b6 1e       	adc	r11, r22
    1276:	87 1e       	adc	r8, r23
    1278:	44 27       	eor	r20, r20
    127a:	99 0c       	add	r9, r9
    127c:	aa 1c       	adc	r10, r10
    127e:	bb 1c       	adc	r11, r11
    1280:	88 1c       	adc	r8, r8
    1282:	44 1f       	adc	r20, r20
    1284:	94 26       	eor	r9, r20
    1286:	01 91       	ld	r16, Z+
    1288:	11 91       	ld	r17, Z+
    128a:	21 91       	ld	r18, Z+
    128c:	31 91       	ld	r19, Z+
    128e:	70 26       	eor	r7, r16
    1290:	41 26       	eor	r4, r17
    1292:	52 26       	eor	r5, r18
    1294:	63 26       	eor	r6, r19
    1296:	41 91       	ld	r20, Z+
    1298:	51 91       	ld	r21, Z+
    129a:	61 91       	ld	r22, Z+
    129c:	71 91       	ld	r23, Z+
    129e:	40 25       	eor	r20, r0
    12a0:	51 25       	eor	r21, r1
    12a2:	62 25       	eor	r22, r2
    12a4:	73 25       	eor	r23, r3
    12a6:	74 0e       	add	r7, r20
    12a8:	45 1e       	adc	r4, r21
    12aa:	56 1e       	adc	r5, r22
    12ac:	67 1e       	adc	r6, r23
    12ae:	44 27       	eor	r20, r20
    12b0:	66 94       	lsr	r6
    12b2:	57 94       	ror	r5
    12b4:	47 94       	ror	r4
    12b6:	77 94       	ror	r7
    12b8:	47 95       	ror	r20
    12ba:	66 94       	lsr	r6
    12bc:	57 94       	ror	r5
    12be:	47 94       	ror	r4
    12c0:	77 94       	ror	r7
    12c2:	47 95       	ror	r20
    12c4:	66 94       	lsr	r6
    12c6:	57 94       	ror	r5
    12c8:	47 94       	ror	r4
    12ca:	77 94       	ror	r7
    12cc:	47 95       	ror	r20
    12ce:	64 26       	eor	r6, r20
    12d0:	00 26       	eor	r0, r16
    12d2:	11 26       	eor	r1, r17
    12d4:	22 26       	eor	r2, r18
    12d6:	33 26       	eor	r3, r19
    12d8:	41 91       	ld	r20, Z+
    12da:	51 91       	ld	r21, Z+
    12dc:	61 91       	ld	r22, Z+
    12de:	71 91       	ld	r23, Z+
    12e0:	4d 25       	eor	r20, r13
    12e2:	5e 25       	eor	r21, r14
    12e4:	6f 25       	eor	r22, r15
    12e6:	7c 25       	eor	r23, r12
    12e8:	04 0e       	add	r0, r20
    12ea:	15 1e       	adc	r1, r21
    12ec:	26 1e       	adc	r2, r22
    12ee:	37 1e       	adc	r3, r23
    12f0:	44 27       	eor	r20, r20
    12f2:	00 0c       	add	r0, r0
    12f4:	11 1c       	adc	r1, r1
    12f6:	22 1c       	adc	r2, r2
    12f8:	33 1c       	adc	r3, r3
    12fa:	44 1f       	adc	r20, r20
    12fc:	00 0c       	add	r0, r0
    12fe:	11 1c       	adc	r1, r1
    1300:	22 1c       	adc	r2, r2
    1302:	33 1c       	adc	r3, r3
    1304:	44 1f       	adc	r20, r20
    1306:	00 0c       	add	r0, r0
    1308:	11 1c       	adc	r1, r1
    130a:	22 1c       	adc	r2, r2
    130c:	33 1c       	adc	r3, r3
    130e:	44 1f       	adc	r20, r20
    1310:	04 26       	eor	r0, r20
    1312:	d0 26       	eor	r13, r16
    1314:	e1 26       	eor	r14, r17
    1316:	f2 26       	eor	r15, r18
    1318:	c3 26       	eor	r12, r19
    131a:	41 91       	ld	r20, Z+
    131c:	51 91       	ld	r21, Z+
    131e:	61 91       	ld	r22, Z+
    1320:	71 91       	ld	r23, Z+
    1322:	48 25       	eor	r20, r8
    1324:	59 25       	eor	r21, r9
    1326:	6a 25       	eor	r22, r10
    1328:	7b 25       	eor	r23, r11
    132a:	d4 0e       	add	r13, r20
    132c:	e5 1e       	adc	r14, r21
    132e:	f6 1e       	adc	r15, r22
    1330:	c7 1e       	adc	r12, r23
    1332:	44 27       	eor	r20, r20
    1334:	dd 0c       	add	r13, r13
    1336:	ee 1c       	adc	r14, r14
    1338:	ff 1c       	adc	r15, r15
    133a:	cc 1c       	adc	r12, r12
    133c:	44 1f       	adc	r20, r20
    133e:	d4 26       	eor	r13, r20
    1340:	01 91       	ld	r16, Z+
    1342:	11 91       	ld	r17, Z+
    1344:	21 91       	ld	r18, Z+
    1346:	31 91       	ld	r19, Z+
    1348:	80 26       	eor	r8, r16
    134a:	91 26       	eor	r9, r17
    134c:	a2 26       	eor	r10, r18
    134e:	b3 26       	eor	r11, r19
    1350:	41 91       	ld	r20, Z+
    1352:	51 91       	ld	r21, Z+
    1354:	61 91       	ld	r22, Z+
    1356:	71 91       	ld	r23, Z+
    1358:	47 25       	eor	r20, r7
    135a:	54 25       	eor	r21, r4
    135c:	65 25       	eor	r22, r5
    135e:	76 25       	eor	r23, r6
    1360:	84 0e       	add	r8, r20
    1362:	95 1e       	adc	r9, r21
    1364:	a6 1e       	adc	r10, r22
    1366:	b7 1e       	adc	r11, r23
    1368:	44 27       	eor	r20, r20
    136a:	b6 94       	lsr	r11
    136c:	a7 94       	ror	r10
    136e:	97 94       	ror	r9
    1370:	87 94       	ror	r8
    1372:	47 95       	ror	r20
    1374:	b6 94       	lsr	r11
    1376:	a7 94       	ror	r10
    1378:	97 94       	ror	r9
    137a:	87 94       	ror	r8
    137c:	47 95       	ror	r20
    137e:	b6 94       	lsr	r11
    1380:	a7 94       	ror	r10
    1382:	97 94       	ror	r9
    1384:	87 94       	ror	r8
    1386:	47 95       	ror	r20
    1388:	b4 26       	eor	r11, r20
    138a:	70 26       	eor	r7, r16
    138c:	41 26       	eor	r4, r17
    138e:	52 26       	eor	r5, r18
    1390:	63 26       	eor	r6, r19
    1392:	41 91       	ld	r20, Z+
    1394:	51 91       	ld	r21, Z+
    1396:	61 91       	ld	r22, Z+
    1398:	71 91       	ld	r23, Z+
    139a:	41 25       	eor	r20, r1
    139c:	52 25       	eor	r21, r2
    139e:	63 25       	eor	r22, r3
    13a0:	70 25       	eor	r23, r0
    13a2:	74 0e       	add	r7, r20
    13a4:	45 1e       	adc	r4, r21
    13a6:	56 1e       	adc	r5, r22
    13a8:	67 1e       	adc	r6, r23
    13aa:	44 27       	eor	r20, r20
    13ac:	77 0c       	add	r7, r7
    13ae:	44 1c       	adc	r4, r4
    13b0:	55 1c       	adc	r5, r5
    13b2:	66 1c       	adc	r6, r6
    13b4:	44 1f       	adc	r20, r20
    13b6:	77 0c       	add	r7, r7
    13b8:	44 1c       	adc	r4, r4
    13ba:	55 1c       	adc	r5, r5
    13bc:	66 1c       	adc	r6, r6
    13be:	44 1f       	adc	r20, r20
    13c0:	77 0c       	add	r7, r7
    13c2:	44 1c       	adc	r4, r4
    13c4:	55 1c       	adc	r5, r5
    13c6:	66 1c       	adc	r6, r6
    13c8:	44 1f       	adc	r20, r20
    13ca:	74 26       	eor	r7, r20
    13cc:	10 26       	eor	r1, r16
    13ce:	21 26       	eor	r2, r17
    13d0:	32 26       	eor	r3, r18
    13d2:	03 26       	eor	r0, r19
    13d4:	41 91       	ld	r20, Z+
    13d6:	51 91       	ld	r21, Z+
    13d8:	61 91       	ld	r22, Z+
    13da:	71 91       	ld	r23, Z+
    13dc:	4c 25       	eor	r20, r12
    13de:	5d 25       	eor	r21, r13
    13e0:	6e 25       	eor	r22, r14
    13e2:	7f 25       	eor	r23, r15
    13e4:	14 0e       	add	r1, r20
    13e6:	25 1e       	adc	r2, r21
    13e8:	36 1e       	adc	r3, r22
    13ea:	07 1e       	adc	r0, r23
    13ec:	44 27       	eor	r20, r20
    13ee:	11 0c       	add	r1, r1
    13f0:	22 1c       	adc	r2, r2
    13f2:	33 1c       	adc	r3, r3
    13f4:	00 1c       	adc	r0, r0
    13f6:	44 1f       	adc	r20, r20
    13f8:	14 26       	eor	r1, r20
    13fa:	09 92       	st	Y+, r0
    13fc:	19 92       	st	Y+, r1
    13fe:	29 92       	st	Y+, r2
    1400:	39 92       	st	Y+, r3
    1402:	49 92       	st	Y+, r4
    1404:	59 92       	st	Y+, r5
    1406:	69 92       	st	Y+, r6
    1408:	79 92       	st	Y+, r7
    140a:	89 92       	st	Y+, r8
    140c:	99 92       	st	Y+, r9
    140e:	a9 92       	st	Y+, r10
    1410:	b9 92       	st	Y+, r11
    1412:	c9 92       	st	Y+, r12
    1414:	d9 92       	st	Y+, r13
    1416:	e9 92       	st	Y+, r14
    1418:	f9 92       	st	Y+, r15
    141a:	11 24       	eor	r1, r1
    141c:	df 91       	pop	r29
    141e:	cf 91       	pop	r28
    1420:	1f 91       	pop	r17
    1422:	0f 91       	pop	r16
    1424:	ff 90       	pop	r15
    1426:	ef 90       	pop	r14
    1428:	df 90       	pop	r13
    142a:	cf 90       	pop	r12
    142c:	bf 90       	pop	r11
    142e:	af 90       	pop	r10
    1430:	9f 90       	pop	r9
    1432:	8f 90       	pop	r8
    1434:	7f 90       	pop	r7
    1436:	6f 90       	pop	r6
    1438:	5f 90       	pop	r5
    143a:	4f 90       	pop	r4
    143c:	3f 90       	pop	r3
    143e:	2f 90       	pop	r2
    1440:	08 95       	ret

00001442 <LEA_Keyschedule>:
    1442:	2f 92       	push	r2
    1444:	3f 92       	push	r3
    1446:	4f 92       	push	r4
    1448:	5f 92       	push	r5
    144a:	6f 92       	push	r6
    144c:	7f 92       	push	r7
    144e:	8f 92       	push	r8
    1450:	9f 92       	push	r9
    1452:	af 92       	push	r10
    1454:	bf 92       	push	r11
    1456:	cf 92       	push	r12
    1458:	df 92       	push	r13
    145a:	ef 92       	push	r14
    145c:	ff 92       	push	r15
    145e:	0f 93       	push	r16
    1460:	1f 93       	push	r17
    1462:	cf 93       	push	r28
    1464:	df 93       	push	r29
    1466:	db 01       	movw	r26, r22
    1468:	ea 01       	movw	r28, r20
    146a:	fc 01       	movw	r30, r24
    146c:	0d 90       	ld	r0, X+
    146e:	1d 90       	ld	r1, X+
    1470:	2d 90       	ld	r2, X+
    1472:	3d 90       	ld	r3, X+
    1474:	4d 90       	ld	r4, X+
    1476:	5d 90       	ld	r5, X+
    1478:	6d 90       	ld	r6, X+
    147a:	7d 90       	ld	r7, X+
    147c:	8d 90       	ld	r8, X+
    147e:	9d 90       	ld	r9, X+
    1480:	ad 90       	ld	r10, X+
    1482:	bd 90       	ld	r11, X+
    1484:	cd 90       	ld	r12, X+
    1486:	dd 90       	ld	r13, X+
    1488:	ed 90       	ld	r14, X+
    148a:	fd 90       	ld	r15, X+
    148c:	78 81       	ld	r23, Y
    148e:	89 81       	ldd	r24, Y+1	; 0x01
    1490:	9a 81       	ldd	r25, Y+2	; 0x02
    1492:	ab 81       	ldd	r26, Y+3	; 0x03
    1494:	bb 27       	eor	r27, r27
    1496:	07 0e       	add	r0, r23
    1498:	18 1e       	adc	r1, r24
    149a:	29 1e       	adc	r2, r25
    149c:	3a 1e       	adc	r3, r26
    149e:	00 27       	eor	r16, r16
    14a0:	00 0c       	add	r0, r0
    14a2:	11 1c       	adc	r1, r1
    14a4:	22 1c       	adc	r2, r2
    14a6:	33 1c       	adc	r3, r3
    14a8:	00 1f       	adc	r16, r16
    14aa:	00 26       	eor	r0, r16
    14ac:	77 0f       	add	r23, r23
    14ae:	88 1f       	adc	r24, r24
    14b0:	99 1f       	adc	r25, r25
    14b2:	aa 1f       	adc	r26, r26
    14b4:	bb 1f       	adc	r27, r27
    14b6:	7b 27       	eor	r23, r27
    14b8:	47 0e       	add	r4, r23
    14ba:	58 1e       	adc	r5, r24
    14bc:	69 1e       	adc	r6, r25
    14be:	7a 1e       	adc	r7, r26
    14c0:	00 27       	eor	r16, r16
    14c2:	44 0c       	add	r4, r4
    14c4:	55 1c       	adc	r5, r5
    14c6:	66 1c       	adc	r6, r6
    14c8:	77 1c       	adc	r7, r7
    14ca:	00 1f       	adc	r16, r16
    14cc:	44 0c       	add	r4, r4
    14ce:	55 1c       	adc	r5, r5
    14d0:	66 1c       	adc	r6, r6
    14d2:	77 1c       	adc	r7, r7
    14d4:	00 1f       	adc	r16, r16
    14d6:	44 0c       	add	r4, r4
    14d8:	55 1c       	adc	r5, r5
    14da:	66 1c       	adc	r6, r6
    14dc:	77 1c       	adc	r7, r7
    14de:	00 1f       	adc	r16, r16
    14e0:	40 26       	eor	r4, r16
    14e2:	bb 27       	eor	r27, r27
    14e4:	77 0f       	add	r23, r23
    14e6:	88 1f       	adc	r24, r24
    14e8:	99 1f       	adc	r25, r25
    14ea:	aa 1f       	adc	r26, r26
    14ec:	bb 1f       	adc	r27, r27
    14ee:	7b 27       	eor	r23, r27
    14f0:	87 0e       	add	r8, r23
    14f2:	98 1e       	adc	r9, r24
    14f4:	a9 1e       	adc	r10, r25
    14f6:	ba 1e       	adc	r11, r26
    14f8:	00 27       	eor	r16, r16
    14fa:	b6 94       	lsr	r11
    14fc:	a7 94       	ror	r10
    14fe:	97 94       	ror	r9
    1500:	87 94       	ror	r8
    1502:	07 95       	ror	r16
    1504:	b6 94       	lsr	r11
    1506:	a7 94       	ror	r10
    1508:	97 94       	ror	r9
    150a:	87 94       	ror	r8
    150c:	07 95       	ror	r16
    150e:	0b 25       	eor	r16, r11
    1510:	ba 2c       	mov	r11, r10
    1512:	a9 2c       	mov	r10, r9
    1514:	98 2c       	mov	r9, r8
    1516:	80 2e       	mov	r8, r16
    1518:	bb 27       	eor	r27, r27
    151a:	77 0f       	add	r23, r23
    151c:	88 1f       	adc	r24, r24
    151e:	99 1f       	adc	r25, r25
    1520:	aa 1f       	adc	r26, r26
    1522:	bb 1f       	adc	r27, r27
    1524:	7b 27       	eor	r23, r27
    1526:	c7 0e       	add	r12, r23
    1528:	d8 1e       	adc	r13, r24
    152a:	e9 1e       	adc	r14, r25
    152c:	fa 1e       	adc	r15, r26
    152e:	00 27       	eor	r16, r16
    1530:	cc 0c       	add	r12, r12
    1532:	dd 1c       	adc	r13, r13
    1534:	ee 1c       	adc	r14, r14
    1536:	ff 1c       	adc	r15, r15
    1538:	00 1f       	adc	r16, r16
    153a:	cc 0c       	add	r12, r12
    153c:	dd 1c       	adc	r13, r13
    153e:	ee 1c       	adc	r14, r14
    1540:	ff 1c       	adc	r15, r15
    1542:	00 1f       	adc	r16, r16
    1544:	cc 0c       	add	r12, r12
    1546:	dd 1c       	adc	r13, r13
    1548:	ee 1c       	adc	r14, r14
    154a:	ff 1c       	adc	r15, r15
    154c:	00 1f       	adc	r16, r16
    154e:	0c 25       	eor	r16, r12
    1550:	cf 2c       	mov	r12, r15
    1552:	fe 2c       	mov	r15, r14
    1554:	ed 2c       	mov	r14, r13
    1556:	d0 2e       	mov	r13, r16
    1558:	41 92       	st	Z+, r4
    155a:	51 92       	st	Z+, r5
    155c:	61 92       	st	Z+, r6
    155e:	71 92       	st	Z+, r7
    1560:	c1 92       	st	Z+, r12
    1562:	d1 92       	st	Z+, r13
    1564:	e1 92       	st	Z+, r14
    1566:	f1 92       	st	Z+, r15
    1568:	81 92       	st	Z+, r8
    156a:	91 92       	st	Z+, r9
    156c:	a1 92       	st	Z+, r10
    156e:	b1 92       	st	Z+, r11
    1570:	01 92       	st	Z+, r0
    1572:	11 92       	st	Z+, r1
    1574:	21 92       	st	Z+, r2
    1576:	31 92       	st	Z+, r3
    1578:	7c 81       	ldd	r23, Y+4	; 0x04
    157a:	8d 81       	ldd	r24, Y+5	; 0x05
    157c:	9e 81       	ldd	r25, Y+6	; 0x06
    157e:	af 81       	ldd	r26, Y+7	; 0x07
    1580:	bb 27       	eor	r27, r27
    1582:	77 0f       	add	r23, r23
    1584:	88 1f       	adc	r24, r24
    1586:	99 1f       	adc	r25, r25
    1588:	aa 1f       	adc	r26, r26
    158a:	bb 1f       	adc	r27, r27
    158c:	7b 27       	eor	r23, r27
    158e:	07 0e       	add	r0, r23
    1590:	18 1e       	adc	r1, r24
    1592:	29 1e       	adc	r2, r25
    1594:	3a 1e       	adc	r3, r26
    1596:	00 27       	eor	r16, r16
    1598:	00 0c       	add	r0, r0
    159a:	11 1c       	adc	r1, r1
    159c:	22 1c       	adc	r2, r2
    159e:	33 1c       	adc	r3, r3
    15a0:	00 1f       	adc	r16, r16
    15a2:	00 26       	eor	r0, r16
    15a4:	bb 27       	eor	r27, r27
    15a6:	77 0f       	add	r23, r23
    15a8:	88 1f       	adc	r24, r24
    15aa:	99 1f       	adc	r25, r25
    15ac:	aa 1f       	adc	r26, r26
    15ae:	bb 1f       	adc	r27, r27
    15b0:	7b 27       	eor	r23, r27
    15b2:	47 0e       	add	r4, r23
    15b4:	58 1e       	adc	r5, r24
    15b6:	69 1e       	adc	r6, r25
    15b8:	7a 1e       	adc	r7, r26
    15ba:	00 27       	eor	r16, r16
    15bc:	44 0c       	add	r4, r4
    15be:	55 1c       	adc	r5, r5
    15c0:	66 1c       	adc	r6, r6
    15c2:	77 1c       	adc	r7, r7
    15c4:	00 1f       	adc	r16, r16
    15c6:	44 0c       	add	r4, r4
    15c8:	55 1c       	adc	r5, r5
    15ca:	66 1c       	adc	r6, r6
    15cc:	77 1c       	adc	r7, r7
    15ce:	00 1f       	adc	r16, r16
    15d0:	44 0c       	add	r4, r4
    15d2:	55 1c       	adc	r5, r5
    15d4:	66 1c       	adc	r6, r6
    15d6:	77 1c       	adc	r7, r7
    15d8:	00 1f       	adc	r16, r16
    15da:	40 26       	eor	r4, r16
    15dc:	bb 27       	eor	r27, r27
    15de:	77 0f       	add	r23, r23
    15e0:	88 1f       	adc	r24, r24
    15e2:	99 1f       	adc	r25, r25
    15e4:	aa 1f       	adc	r26, r26
    15e6:	bb 1f       	adc	r27, r27
    15e8:	7b 27       	eor	r23, r27
    15ea:	87 0e       	add	r8, r23
    15ec:	98 1e       	adc	r9, r24
    15ee:	a9 1e       	adc	r10, r25
    15f0:	ba 1e       	adc	r11, r26
    15f2:	00 27       	eor	r16, r16
    15f4:	b6 94       	lsr	r11
    15f6:	a7 94       	ror	r10
    15f8:	97 94       	ror	r9
    15fa:	87 94       	ror	r8
    15fc:	07 95       	ror	r16
    15fe:	b6 94       	lsr	r11
    1600:	a7 94       	ror	r10
    1602:	97 94       	ror	r9
    1604:	87 94       	ror	r8
    1606:	07 95       	ror	r16
    1608:	0b 25       	eor	r16, r11
    160a:	ba 2c       	mov	r11, r10
    160c:	a9 2c       	mov	r10, r9
    160e:	98 2c       	mov	r9, r8
    1610:	80 2e       	mov	r8, r16
    1612:	bb 27       	eor	r27, r27
    1614:	77 0f       	add	r23, r23
    1616:	88 1f       	adc	r24, r24
    1618:	99 1f       	adc	r25, r25
    161a:	aa 1f       	adc	r26, r26
    161c:	bb 1f       	adc	r27, r27
    161e:	7b 27       	eor	r23, r27
    1620:	c7 0e       	add	r12, r23
    1622:	d8 1e       	adc	r13, r24
    1624:	e9 1e       	adc	r14, r25
    1626:	fa 1e       	adc	r15, r26
    1628:	00 27       	eor	r16, r16
    162a:	cc 0c       	add	r12, r12
    162c:	dd 1c       	adc	r13, r13
    162e:	ee 1c       	adc	r14, r14
    1630:	ff 1c       	adc	r15, r15
    1632:	00 1f       	adc	r16, r16
    1634:	cc 0c       	add	r12, r12
    1636:	dd 1c       	adc	r13, r13
    1638:	ee 1c       	adc	r14, r14
    163a:	ff 1c       	adc	r15, r15
    163c:	00 1f       	adc	r16, r16
    163e:	cc 0c       	add	r12, r12
    1640:	dd 1c       	adc	r13, r13
    1642:	ee 1c       	adc	r14, r14
    1644:	ff 1c       	adc	r15, r15
    1646:	00 1f       	adc	r16, r16
    1648:	0c 25       	eor	r16, r12
    164a:	cf 2c       	mov	r12, r15
    164c:	fe 2c       	mov	r15, r14
    164e:	ed 2c       	mov	r14, r13
    1650:	d0 2e       	mov	r13, r16
    1652:	41 92       	st	Z+, r4
    1654:	51 92       	st	Z+, r5
    1656:	61 92       	st	Z+, r6
    1658:	71 92       	st	Z+, r7
    165a:	c1 92       	st	Z+, r12
    165c:	d1 92       	st	Z+, r13
    165e:	e1 92       	st	Z+, r14
    1660:	f1 92       	st	Z+, r15
    1662:	81 92       	st	Z+, r8
    1664:	91 92       	st	Z+, r9
    1666:	a1 92       	st	Z+, r10
    1668:	b1 92       	st	Z+, r11
    166a:	01 92       	st	Z+, r0
    166c:	11 92       	st	Z+, r1
    166e:	21 92       	st	Z+, r2
    1670:	31 92       	st	Z+, r3
    1672:	78 85       	ldd	r23, Y+8	; 0x08
    1674:	89 85       	ldd	r24, Y+9	; 0x09
    1676:	9a 85       	ldd	r25, Y+10	; 0x0a
    1678:	ab 85       	ldd	r26, Y+11	; 0x0b
    167a:	bb 27       	eor	r27, r27
    167c:	77 0f       	add	r23, r23
    167e:	88 1f       	adc	r24, r24
    1680:	99 1f       	adc	r25, r25
    1682:	aa 1f       	adc	r26, r26
    1684:	bb 1f       	adc	r27, r27
    1686:	77 0f       	add	r23, r23
    1688:	88 1f       	adc	r24, r24
    168a:	99 1f       	adc	r25, r25
    168c:	aa 1f       	adc	r26, r26
    168e:	bb 1f       	adc	r27, r27
    1690:	7b 27       	eor	r23, r27
    1692:	07 0e       	add	r0, r23
    1694:	18 1e       	adc	r1, r24
    1696:	29 1e       	adc	r2, r25
    1698:	3a 1e       	adc	r3, r26
    169a:	00 27       	eor	r16, r16
    169c:	00 0c       	add	r0, r0
    169e:	11 1c       	adc	r1, r1
    16a0:	22 1c       	adc	r2, r2
    16a2:	33 1c       	adc	r3, r3
    16a4:	00 1f       	adc	r16, r16
    16a6:	00 26       	eor	r0, r16
    16a8:	bb 27       	eor	r27, r27
    16aa:	77 0f       	add	r23, r23
    16ac:	88 1f       	adc	r24, r24
    16ae:	99 1f       	adc	r25, r25
    16b0:	aa 1f       	adc	r26, r26
    16b2:	bb 1f       	adc	r27, r27
    16b4:	7b 27       	eor	r23, r27
    16b6:	47 0e       	add	r4, r23
    16b8:	58 1e       	adc	r5, r24
    16ba:	69 1e       	adc	r6, r25
    16bc:	7a 1e       	adc	r7, r26
    16be:	00 27       	eor	r16, r16
    16c0:	44 0c       	add	r4, r4
    16c2:	55 1c       	adc	r5, r5
    16c4:	66 1c       	adc	r6, r6
    16c6:	77 1c       	adc	r7, r7
    16c8:	00 1f       	adc	r16, r16
    16ca:	44 0c       	add	r4, r4
    16cc:	55 1c       	adc	r5, r5
    16ce:	66 1c       	adc	r6, r6
    16d0:	77 1c       	adc	r7, r7
    16d2:	00 1f       	adc	r16, r16
    16d4:	44 0c       	add	r4, r4
    16d6:	55 1c       	adc	r5, r5
    16d8:	66 1c       	adc	r6, r6
    16da:	77 1c       	adc	r7, r7
    16dc:	00 1f       	adc	r16, r16
    16de:	40 26       	eor	r4, r16
    16e0:	bb 27       	eor	r27, r27
    16e2:	77 0f       	add	r23, r23
    16e4:	88 1f       	adc	r24, r24
    16e6:	99 1f       	adc	r25, r25
    16e8:	aa 1f       	adc	r26, r26
    16ea:	bb 1f       	adc	r27, r27
    16ec:	7b 27       	eor	r23, r27
    16ee:	87 0e       	add	r8, r23
    16f0:	98 1e       	adc	r9, r24
    16f2:	a9 1e       	adc	r10, r25
    16f4:	ba 1e       	adc	r11, r26
    16f6:	00 27       	eor	r16, r16
    16f8:	b6 94       	lsr	r11
    16fa:	a7 94       	ror	r10
    16fc:	97 94       	ror	r9
    16fe:	87 94       	ror	r8
    1700:	07 95       	ror	r16
    1702:	b6 94       	lsr	r11
    1704:	a7 94       	ror	r10
    1706:	97 94       	ror	r9
    1708:	87 94       	ror	r8
    170a:	07 95       	ror	r16
    170c:	0b 25       	eor	r16, r11
    170e:	ba 2c       	mov	r11, r10
    1710:	a9 2c       	mov	r10, r9
    1712:	98 2c       	mov	r9, r8
    1714:	80 2e       	mov	r8, r16
    1716:	bb 27       	eor	r27, r27
    1718:	77 0f       	add	r23, r23
    171a:	88 1f       	adc	r24, r24
    171c:	99 1f       	adc	r25, r25
    171e:	aa 1f       	adc	r26, r26
    1720:	bb 1f       	adc	r27, r27
    1722:	7b 27       	eor	r23, r27
    1724:	c7 0e       	add	r12, r23
    1726:	d8 1e       	adc	r13, r24
    1728:	e9 1e       	adc	r14, r25
    172a:	fa 1e       	adc	r15, r26
    172c:	00 27       	eor	r16, r16
    172e:	cc 0c       	add	r12, r12
    1730:	dd 1c       	adc	r13, r13
    1732:	ee 1c       	adc	r14, r14
    1734:	ff 1c       	adc	r15, r15
    1736:	00 1f       	adc	r16, r16
    1738:	cc 0c       	add	r12, r12
    173a:	dd 1c       	adc	r13, r13
    173c:	ee 1c       	adc	r14, r14
    173e:	ff 1c       	adc	r15, r15
    1740:	00 1f       	adc	r16, r16
    1742:	cc 0c       	add	r12, r12
    1744:	dd 1c       	adc	r13, r13
    1746:	ee 1c       	adc	r14, r14
    1748:	ff 1c       	adc	r15, r15
    174a:	00 1f       	adc	r16, r16
    174c:	0c 25       	eor	r16, r12
    174e:	cf 2c       	mov	r12, r15
    1750:	fe 2c       	mov	r15, r14
    1752:	ed 2c       	mov	r14, r13
    1754:	d0 2e       	mov	r13, r16
    1756:	41 92       	st	Z+, r4
    1758:	51 92       	st	Z+, r5
    175a:	61 92       	st	Z+, r6
    175c:	71 92       	st	Z+, r7
    175e:	c1 92       	st	Z+, r12
    1760:	d1 92       	st	Z+, r13
    1762:	e1 92       	st	Z+, r14
    1764:	f1 92       	st	Z+, r15
    1766:	81 92       	st	Z+, r8
    1768:	91 92       	st	Z+, r9
    176a:	a1 92       	st	Z+, r10
    176c:	b1 92       	st	Z+, r11
    176e:	01 92       	st	Z+, r0
    1770:	11 92       	st	Z+, r1
    1772:	21 92       	st	Z+, r2
    1774:	31 92       	st	Z+, r3
    1776:	7c 85       	ldd	r23, Y+12	; 0x0c
    1778:	8d 85       	ldd	r24, Y+13	; 0x0d
    177a:	9e 85       	ldd	r25, Y+14	; 0x0e
    177c:	af 85       	ldd	r26, Y+15	; 0x0f
    177e:	bb 27       	eor	r27, r27
    1780:	77 0f       	add	r23, r23
    1782:	88 1f       	adc	r24, r24
    1784:	99 1f       	adc	r25, r25
    1786:	aa 1f       	adc	r26, r26
    1788:	bb 1f       	adc	r27, r27
    178a:	77 0f       	add	r23, r23
    178c:	88 1f       	adc	r24, r24
    178e:	99 1f       	adc	r25, r25
    1790:	aa 1f       	adc	r26, r26
    1792:	bb 1f       	adc	r27, r27
    1794:	77 0f       	add	r23, r23
    1796:	88 1f       	adc	r24, r24
    1798:	99 1f       	adc	r25, r25
    179a:	aa 1f       	adc	r26, r26
    179c:	bb 1f       	adc	r27, r27
    179e:	7b 27       	eor	r23, r27
    17a0:	07 0e       	add	r0, r23
    17a2:	18 1e       	adc	r1, r24
    17a4:	29 1e       	adc	r2, r25
    17a6:	3a 1e       	adc	r3, r26
    17a8:	00 27       	eor	r16, r16
    17aa:	00 0c       	add	r0, r0
    17ac:	11 1c       	adc	r1, r1
    17ae:	22 1c       	adc	r2, r2
    17b0:	33 1c       	adc	r3, r3
    17b2:	00 1f       	adc	r16, r16
    17b4:	00 26       	eor	r0, r16
    17b6:	bb 27       	eor	r27, r27
    17b8:	77 0f       	add	r23, r23
    17ba:	88 1f       	adc	r24, r24
    17bc:	99 1f       	adc	r25, r25
    17be:	aa 1f       	adc	r26, r26
    17c0:	bb 1f       	adc	r27, r27
    17c2:	7b 27       	eor	r23, r27
    17c4:	47 0e       	add	r4, r23
    17c6:	58 1e       	adc	r5, r24
    17c8:	69 1e       	adc	r6, r25
    17ca:	7a 1e       	adc	r7, r26
    17cc:	00 27       	eor	r16, r16
    17ce:	44 0c       	add	r4, r4
    17d0:	55 1c       	adc	r5, r5
    17d2:	66 1c       	adc	r6, r6
    17d4:	77 1c       	adc	r7, r7
    17d6:	00 1f       	adc	r16, r16
    17d8:	44 0c       	add	r4, r4
    17da:	55 1c       	adc	r5, r5
    17dc:	66 1c       	adc	r6, r6
    17de:	77 1c       	adc	r7, r7
    17e0:	00 1f       	adc	r16, r16
    17e2:	44 0c       	add	r4, r4
    17e4:	55 1c       	adc	r5, r5
    17e6:	66 1c       	adc	r6, r6
    17e8:	77 1c       	adc	r7, r7
    17ea:	00 1f       	adc	r16, r16
    17ec:	40 26       	eor	r4, r16
    17ee:	bb 27       	eor	r27, r27
    17f0:	77 0f       	add	r23, r23
    17f2:	88 1f       	adc	r24, r24
    17f4:	99 1f       	adc	r25, r25
    17f6:	aa 1f       	adc	r26, r26
    17f8:	bb 1f       	adc	r27, r27
    17fa:	7b 27       	eor	r23, r27
    17fc:	87 0e       	add	r8, r23
    17fe:	98 1e       	adc	r9, r24
    1800:	a9 1e       	adc	r10, r25
    1802:	ba 1e       	adc	r11, r26
    1804:	00 27       	eor	r16, r16
    1806:	b6 94       	lsr	r11
    1808:	a7 94       	ror	r10
    180a:	97 94       	ror	r9
    180c:	87 94       	ror	r8
    180e:	07 95       	ror	r16
    1810:	b6 94       	lsr	r11
    1812:	a7 94       	ror	r10
    1814:	97 94       	ror	r9
    1816:	87 94       	ror	r8
    1818:	07 95       	ror	r16
    181a:	0b 25       	eor	r16, r11
    181c:	ba 2c       	mov	r11, r10
    181e:	a9 2c       	mov	r10, r9
    1820:	98 2c       	mov	r9, r8
    1822:	80 2e       	mov	r8, r16
    1824:	bb 27       	eor	r27, r27
    1826:	77 0f       	add	r23, r23
    1828:	88 1f       	adc	r24, r24
    182a:	99 1f       	adc	r25, r25
    182c:	aa 1f       	adc	r26, r26
    182e:	bb 1f       	adc	r27, r27
    1830:	7b 27       	eor	r23, r27
    1832:	c7 0e       	add	r12, r23
    1834:	d8 1e       	adc	r13, r24
    1836:	e9 1e       	adc	r14, r25
    1838:	fa 1e       	adc	r15, r26
    183a:	00 27       	eor	r16, r16
    183c:	cc 0c       	add	r12, r12
    183e:	dd 1c       	adc	r13, r13
    1840:	ee 1c       	adc	r14, r14
    1842:	ff 1c       	adc	r15, r15
    1844:	00 1f       	adc	r16, r16
    1846:	cc 0c       	add	r12, r12
    1848:	dd 1c       	adc	r13, r13
    184a:	ee 1c       	adc	r14, r14
    184c:	ff 1c       	adc	r15, r15
    184e:	00 1f       	adc	r16, r16
    1850:	cc 0c       	add	r12, r12
    1852:	dd 1c       	adc	r13, r13
    1854:	ee 1c       	adc	r14, r14
    1856:	ff 1c       	adc	r15, r15
    1858:	00 1f       	adc	r16, r16
    185a:	0c 25       	eor	r16, r12
    185c:	cf 2c       	mov	r12, r15
    185e:	fe 2c       	mov	r15, r14
    1860:	ed 2c       	mov	r14, r13
    1862:	d0 2e       	mov	r13, r16
    1864:	41 92       	st	Z+, r4
    1866:	51 92       	st	Z+, r5
    1868:	61 92       	st	Z+, r6
    186a:	71 92       	st	Z+, r7
    186c:	c1 92       	st	Z+, r12
    186e:	d1 92       	st	Z+, r13
    1870:	e1 92       	st	Z+, r14
    1872:	f1 92       	st	Z+, r15
    1874:	81 92       	st	Z+, r8
    1876:	91 92       	st	Z+, r9
    1878:	a1 92       	st	Z+, r10
    187a:	b1 92       	st	Z+, r11
    187c:	01 92       	st	Z+, r0
    187e:	11 92       	st	Z+, r1
    1880:	21 92       	st	Z+, r2
    1882:	31 92       	st	Z+, r3
    1884:	78 81       	ld	r23, Y
    1886:	89 81       	ldd	r24, Y+1	; 0x01
    1888:	9a 81       	ldd	r25, Y+2	; 0x02
    188a:	ab 81       	ldd	r26, Y+3	; 0x03
    188c:	bb 27       	eor	r27, r27
    188e:	77 0f       	add	r23, r23
    1890:	88 1f       	adc	r24, r24
    1892:	99 1f       	adc	r25, r25
    1894:	aa 1f       	adc	r26, r26
    1896:	bb 1f       	adc	r27, r27
    1898:	77 0f       	add	r23, r23
    189a:	88 1f       	adc	r24, r24
    189c:	99 1f       	adc	r25, r25
    189e:	aa 1f       	adc	r26, r26
    18a0:	bb 1f       	adc	r27, r27
    18a2:	77 0f       	add	r23, r23
    18a4:	88 1f       	adc	r24, r24
    18a6:	99 1f       	adc	r25, r25
    18a8:	aa 1f       	adc	r26, r26
    18aa:	bb 1f       	adc	r27, r27
    18ac:	77 0f       	add	r23, r23
    18ae:	88 1f       	adc	r24, r24
    18b0:	99 1f       	adc	r25, r25
    18b2:	aa 1f       	adc	r26, r26
    18b4:	bb 1f       	adc	r27, r27
    18b6:	7b 27       	eor	r23, r27
    18b8:	07 0e       	add	r0, r23
    18ba:	18 1e       	adc	r1, r24
    18bc:	29 1e       	adc	r2, r25
    18be:	3a 1e       	adc	r3, r26
    18c0:	00 27       	eor	r16, r16
    18c2:	00 0c       	add	r0, r0
    18c4:	11 1c       	adc	r1, r1
    18c6:	22 1c       	adc	r2, r2
    18c8:	33 1c       	adc	r3, r3
    18ca:	00 1f       	adc	r16, r16
    18cc:	00 26       	eor	r0, r16
    18ce:	bb 27       	eor	r27, r27
    18d0:	77 0f       	add	r23, r23
    18d2:	88 1f       	adc	r24, r24
    18d4:	99 1f       	adc	r25, r25
    18d6:	aa 1f       	adc	r26, r26
    18d8:	bb 1f       	adc	r27, r27
    18da:	7b 27       	eor	r23, r27
    18dc:	47 0e       	add	r4, r23
    18de:	58 1e       	adc	r5, r24
    18e0:	69 1e       	adc	r6, r25
    18e2:	7a 1e       	adc	r7, r26
    18e4:	00 27       	eor	r16, r16
    18e6:	44 0c       	add	r4, r4
    18e8:	55 1c       	adc	r5, r5
    18ea:	66 1c       	adc	r6, r6
    18ec:	77 1c       	adc	r7, r7
    18ee:	00 1f       	adc	r16, r16
    18f0:	44 0c       	add	r4, r4
    18f2:	55 1c       	adc	r5, r5
    18f4:	66 1c       	adc	r6, r6
    18f6:	77 1c       	adc	r7, r7
    18f8:	00 1f       	adc	r16, r16
    18fa:	44 0c       	add	r4, r4
    18fc:	55 1c       	adc	r5, r5
    18fe:	66 1c       	adc	r6, r6
    1900:	77 1c       	adc	r7, r7
    1902:	00 1f       	adc	r16, r16
    1904:	40 26       	eor	r4, r16
    1906:	bb 27       	eor	r27, r27
    1908:	77 0f       	add	r23, r23
    190a:	88 1f       	adc	r24, r24
    190c:	99 1f       	adc	r25, r25
    190e:	aa 1f       	adc	r26, r26
    1910:	bb 1f       	adc	r27, r27
    1912:	7b 27       	eor	r23, r27
    1914:	87 0e       	add	r8, r23
    1916:	98 1e       	adc	r9, r24
    1918:	a9 1e       	adc	r10, r25
    191a:	ba 1e       	adc	r11, r26
    191c:	00 27       	eor	r16, r16
    191e:	b6 94       	lsr	r11
    1920:	a7 94       	ror	r10
    1922:	97 94       	ror	r9
    1924:	87 94       	ror	r8
    1926:	07 95       	ror	r16
    1928:	b6 94       	lsr	r11
    192a:	a7 94       	ror	r10
    192c:	97 94       	ror	r9
    192e:	87 94       	ror	r8
    1930:	07 95       	ror	r16
    1932:	0b 25       	eor	r16, r11
    1934:	ba 2c       	mov	r11, r10
    1936:	a9 2c       	mov	r10, r9
    1938:	98 2c       	mov	r9, r8
    193a:	80 2e       	mov	r8, r16
    193c:	bb 27       	eor	r27, r27
    193e:	77 0f       	add	r23, r23
    1940:	88 1f       	adc	r24, r24
    1942:	99 1f       	adc	r25, r25
    1944:	aa 1f       	adc	r26, r26
    1946:	bb 1f       	adc	r27, r27
    1948:	7b 27       	eor	r23, r27
    194a:	c7 0e       	add	r12, r23
    194c:	d8 1e       	adc	r13, r24
    194e:	e9 1e       	adc	r14, r25
    1950:	fa 1e       	adc	r15, r26
    1952:	00 27       	eor	r16, r16
    1954:	cc 0c       	add	r12, r12
    1956:	dd 1c       	adc	r13, r13
    1958:	ee 1c       	adc	r14, r14
    195a:	ff 1c       	adc	r15, r15
    195c:	00 1f       	adc	r16, r16
    195e:	cc 0c       	add	r12, r12
    1960:	dd 1c       	adc	r13, r13
    1962:	ee 1c       	adc	r14, r14
    1964:	ff 1c       	adc	r15, r15
    1966:	00 1f       	adc	r16, r16
    1968:	cc 0c       	add	r12, r12
    196a:	dd 1c       	adc	r13, r13
    196c:	ee 1c       	adc	r14, r14
    196e:	ff 1c       	adc	r15, r15
    1970:	00 1f       	adc	r16, r16
    1972:	0c 25       	eor	r16, r12
    1974:	cf 2c       	mov	r12, r15
    1976:	fe 2c       	mov	r15, r14
    1978:	ed 2c       	mov	r14, r13
    197a:	d0 2e       	mov	r13, r16
    197c:	41 92       	st	Z+, r4
    197e:	51 92       	st	Z+, r5
    1980:	61 92       	st	Z+, r6
    1982:	71 92       	st	Z+, r7
    1984:	c1 92       	st	Z+, r12
    1986:	d1 92       	st	Z+, r13
    1988:	e1 92       	st	Z+, r14
    198a:	f1 92       	st	Z+, r15
    198c:	81 92       	st	Z+, r8
    198e:	91 92       	st	Z+, r9
    1990:	a1 92       	st	Z+, r10
    1992:	b1 92       	st	Z+, r11
    1994:	01 92       	st	Z+, r0
    1996:	11 92       	st	Z+, r1
    1998:	21 92       	st	Z+, r2
    199a:	31 92       	st	Z+, r3
    199c:	7c 81       	ldd	r23, Y+4	; 0x04
    199e:	8d 81       	ldd	r24, Y+5	; 0x05
    19a0:	9e 81       	ldd	r25, Y+6	; 0x06
    19a2:	af 81       	ldd	r26, Y+7	; 0x07
    19a4:	bb 27       	eor	r27, r27
    19a6:	a6 95       	lsr	r26
    19a8:	97 95       	ror	r25
    19aa:	87 95       	ror	r24
    19ac:	77 95       	ror	r23
    19ae:	b7 95       	ror	r27
    19b0:	a6 95       	lsr	r26
    19b2:	97 95       	ror	r25
    19b4:	87 95       	ror	r24
    19b6:	77 95       	ror	r23
    19b8:	b7 95       	ror	r27
    19ba:	a6 95       	lsr	r26
    19bc:	97 95       	ror	r25
    19be:	87 95       	ror	r24
    19c0:	77 95       	ror	r23
    19c2:	b7 95       	ror	r27
    19c4:	ba 27       	eor	r27, r26
    19c6:	a9 2f       	mov	r26, r25
    19c8:	98 2f       	mov	r25, r24
    19ca:	87 2f       	mov	r24, r23
    19cc:	7b 2f       	mov	r23, r27
    19ce:	07 0e       	add	r0, r23
    19d0:	18 1e       	adc	r1, r24
    19d2:	29 1e       	adc	r2, r25
    19d4:	3a 1e       	adc	r3, r26
    19d6:	00 27       	eor	r16, r16
    19d8:	00 0c       	add	r0, r0
    19da:	11 1c       	adc	r1, r1
    19dc:	22 1c       	adc	r2, r2
    19de:	33 1c       	adc	r3, r3
    19e0:	00 1f       	adc	r16, r16
    19e2:	00 26       	eor	r0, r16
    19e4:	bb 27       	eor	r27, r27
    19e6:	77 0f       	add	r23, r23
    19e8:	88 1f       	adc	r24, r24
    19ea:	99 1f       	adc	r25, r25
    19ec:	aa 1f       	adc	r26, r26
    19ee:	bb 1f       	adc	r27, r27
    19f0:	7b 27       	eor	r23, r27
    19f2:	47 0e       	add	r4, r23
    19f4:	58 1e       	adc	r5, r24
    19f6:	69 1e       	adc	r6, r25
    19f8:	7a 1e       	adc	r7, r26
    19fa:	00 27       	eor	r16, r16
    19fc:	44 0c       	add	r4, r4
    19fe:	55 1c       	adc	r5, r5
    1a00:	66 1c       	adc	r6, r6
    1a02:	77 1c       	adc	r7, r7
    1a04:	00 1f       	adc	r16, r16
    1a06:	44 0c       	add	r4, r4
    1a08:	55 1c       	adc	r5, r5
    1a0a:	66 1c       	adc	r6, r6
    1a0c:	77 1c       	adc	r7, r7
    1a0e:	00 1f       	adc	r16, r16
    1a10:	44 0c       	add	r4, r4
    1a12:	55 1c       	adc	r5, r5
    1a14:	66 1c       	adc	r6, r6
    1a16:	77 1c       	adc	r7, r7
    1a18:	00 1f       	adc	r16, r16
    1a1a:	40 26       	eor	r4, r16
    1a1c:	bb 27       	eor	r27, r27
    1a1e:	77 0f       	add	r23, r23
    1a20:	88 1f       	adc	r24, r24
    1a22:	99 1f       	adc	r25, r25
    1a24:	aa 1f       	adc	r26, r26
    1a26:	bb 1f       	adc	r27, r27
    1a28:	7b 27       	eor	r23, r27
    1a2a:	87 0e       	add	r8, r23
    1a2c:	98 1e       	adc	r9, r24
    1a2e:	a9 1e       	adc	r10, r25
    1a30:	ba 1e       	adc	r11, r26
    1a32:	00 27       	eor	r16, r16
    1a34:	b6 94       	lsr	r11
    1a36:	a7 94       	ror	r10
    1a38:	97 94       	ror	r9
    1a3a:	87 94       	ror	r8
    1a3c:	07 95       	ror	r16
    1a3e:	b6 94       	lsr	r11
    1a40:	a7 94       	ror	r10
    1a42:	97 94       	ror	r9
    1a44:	87 94       	ror	r8
    1a46:	07 95       	ror	r16
    1a48:	0b 25       	eor	r16, r11
    1a4a:	ba 2c       	mov	r11, r10
    1a4c:	a9 2c       	mov	r10, r9
    1a4e:	98 2c       	mov	r9, r8
    1a50:	80 2e       	mov	r8, r16
    1a52:	bb 27       	eor	r27, r27
    1a54:	77 0f       	add	r23, r23
    1a56:	88 1f       	adc	r24, r24
    1a58:	99 1f       	adc	r25, r25
    1a5a:	aa 1f       	adc	r26, r26
    1a5c:	bb 1f       	adc	r27, r27
    1a5e:	7b 27       	eor	r23, r27
    1a60:	c7 0e       	add	r12, r23
    1a62:	d8 1e       	adc	r13, r24
    1a64:	e9 1e       	adc	r14, r25
    1a66:	fa 1e       	adc	r15, r26
    1a68:	00 27       	eor	r16, r16
    1a6a:	cc 0c       	add	r12, r12
    1a6c:	dd 1c       	adc	r13, r13
    1a6e:	ee 1c       	adc	r14, r14
    1a70:	ff 1c       	adc	r15, r15
    1a72:	00 1f       	adc	r16, r16
    1a74:	cc 0c       	add	r12, r12
    1a76:	dd 1c       	adc	r13, r13
    1a78:	ee 1c       	adc	r14, r14
    1a7a:	ff 1c       	adc	r15, r15
    1a7c:	00 1f       	adc	r16, r16
    1a7e:	cc 0c       	add	r12, r12
    1a80:	dd 1c       	adc	r13, r13
    1a82:	ee 1c       	adc	r14, r14
    1a84:	ff 1c       	adc	r15, r15
    1a86:	00 1f       	adc	r16, r16
    1a88:	0c 25       	eor	r16, r12
    1a8a:	cf 2c       	mov	r12, r15
    1a8c:	fe 2c       	mov	r15, r14
    1a8e:	ed 2c       	mov	r14, r13
    1a90:	d0 2e       	mov	r13, r16
    1a92:	41 92       	st	Z+, r4
    1a94:	51 92       	st	Z+, r5
    1a96:	61 92       	st	Z+, r6
    1a98:	71 92       	st	Z+, r7
    1a9a:	c1 92       	st	Z+, r12
    1a9c:	d1 92       	st	Z+, r13
    1a9e:	e1 92       	st	Z+, r14
    1aa0:	f1 92       	st	Z+, r15
    1aa2:	81 92       	st	Z+, r8
    1aa4:	91 92       	st	Z+, r9
    1aa6:	a1 92       	st	Z+, r10
    1aa8:	b1 92       	st	Z+, r11
    1aaa:	01 92       	st	Z+, r0
    1aac:	11 92       	st	Z+, r1
    1aae:	21 92       	st	Z+, r2
    1ab0:	31 92       	st	Z+, r3
    1ab2:	78 85       	ldd	r23, Y+8	; 0x08
    1ab4:	89 85       	ldd	r24, Y+9	; 0x09
    1ab6:	9a 85       	ldd	r25, Y+10	; 0x0a
    1ab8:	ab 85       	ldd	r26, Y+11	; 0x0b
    1aba:	bb 27       	eor	r27, r27
    1abc:	a6 95       	lsr	r26
    1abe:	97 95       	ror	r25
    1ac0:	87 95       	ror	r24
    1ac2:	77 95       	ror	r23
    1ac4:	b7 95       	ror	r27
    1ac6:	a6 95       	lsr	r26
    1ac8:	97 95       	ror	r25
    1aca:	87 95       	ror	r24
    1acc:	77 95       	ror	r23
    1ace:	b7 95       	ror	r27
    1ad0:	ba 27       	eor	r27, r26
    1ad2:	a9 2f       	mov	r26, r25
    1ad4:	98 2f       	mov	r25, r24
    1ad6:	87 2f       	mov	r24, r23
    1ad8:	7b 2f       	mov	r23, r27
    1ada:	07 0e       	add	r0, r23
    1adc:	18 1e       	adc	r1, r24
    1ade:	29 1e       	adc	r2, r25
    1ae0:	3a 1e       	adc	r3, r26
    1ae2:	00 27       	eor	r16, r16
    1ae4:	00 0c       	add	r0, r0
    1ae6:	11 1c       	adc	r1, r1
    1ae8:	22 1c       	adc	r2, r2
    1aea:	33 1c       	adc	r3, r3
    1aec:	00 1f       	adc	r16, r16
    1aee:	00 26       	eor	r0, r16
    1af0:	bb 27       	eor	r27, r27
    1af2:	77 0f       	add	r23, r23
    1af4:	88 1f       	adc	r24, r24
    1af6:	99 1f       	adc	r25, r25
    1af8:	aa 1f       	adc	r26, r26
    1afa:	bb 1f       	adc	r27, r27
    1afc:	7b 27       	eor	r23, r27
    1afe:	47 0e       	add	r4, r23
    1b00:	58 1e       	adc	r5, r24
    1b02:	69 1e       	adc	r6, r25
    1b04:	7a 1e       	adc	r7, r26
    1b06:	00 27       	eor	r16, r16
    1b08:	44 0c       	add	r4, r4
    1b0a:	55 1c       	adc	r5, r5
    1b0c:	66 1c       	adc	r6, r6
    1b0e:	77 1c       	adc	r7, r7
    1b10:	00 1f       	adc	r16, r16
    1b12:	44 0c       	add	r4, r4
    1b14:	55 1c       	adc	r5, r5
    1b16:	66 1c       	adc	r6, r6
    1b18:	77 1c       	adc	r7, r7
    1b1a:	00 1f       	adc	r16, r16
    1b1c:	44 0c       	add	r4, r4
    1b1e:	55 1c       	adc	r5, r5
    1b20:	66 1c       	adc	r6, r6
    1b22:	77 1c       	adc	r7, r7
    1b24:	00 1f       	adc	r16, r16
    1b26:	40 26       	eor	r4, r16
    1b28:	bb 27       	eor	r27, r27
    1b2a:	77 0f       	add	r23, r23
    1b2c:	88 1f       	adc	r24, r24
    1b2e:	99 1f       	adc	r25, r25
    1b30:	aa 1f       	adc	r26, r26
    1b32:	bb 1f       	adc	r27, r27
    1b34:	7b 27       	eor	r23, r27
    1b36:	87 0e       	add	r8, r23
    1b38:	98 1e       	adc	r9, r24
    1b3a:	a9 1e       	adc	r10, r25
    1b3c:	ba 1e       	adc	r11, r26
    1b3e:	00 27       	eor	r16, r16
    1b40:	b6 94       	lsr	r11
    1b42:	a7 94       	ror	r10
    1b44:	97 94       	ror	r9
    1b46:	87 94       	ror	r8
    1b48:	07 95       	ror	r16
    1b4a:	b6 94       	lsr	r11
    1b4c:	a7 94       	ror	r10
    1b4e:	97 94       	ror	r9
    1b50:	87 94       	ror	r8
    1b52:	07 95       	ror	r16
    1b54:	0b 25       	eor	r16, r11
    1b56:	ba 2c       	mov	r11, r10
    1b58:	a9 2c       	mov	r10, r9
    1b5a:	98 2c       	mov	r9, r8
    1b5c:	80 2e       	mov	r8, r16
    1b5e:	bb 27       	eor	r27, r27
    1b60:	77 0f       	add	r23, r23
    1b62:	88 1f       	adc	r24, r24
    1b64:	99 1f       	adc	r25, r25
    1b66:	aa 1f       	adc	r26, r26
    1b68:	bb 1f       	adc	r27, r27
    1b6a:	7b 27       	eor	r23, r27
    1b6c:	c7 0e       	add	r12, r23
    1b6e:	d8 1e       	adc	r13, r24
    1b70:	e9 1e       	adc	r14, r25
    1b72:	fa 1e       	adc	r15, r26
    1b74:	00 27       	eor	r16, r16
    1b76:	cc 0c       	add	r12, r12
    1b78:	dd 1c       	adc	r13, r13
    1b7a:	ee 1c       	adc	r14, r14
    1b7c:	ff 1c       	adc	r15, r15
    1b7e:	00 1f       	adc	r16, r16
    1b80:	cc 0c       	add	r12, r12
    1b82:	dd 1c       	adc	r13, r13
    1b84:	ee 1c       	adc	r14, r14
    1b86:	ff 1c       	adc	r15, r15
    1b88:	00 1f       	adc	r16, r16
    1b8a:	cc 0c       	add	r12, r12
    1b8c:	dd 1c       	adc	r13, r13
    1b8e:	ee 1c       	adc	r14, r14
    1b90:	ff 1c       	adc	r15, r15
    1b92:	00 1f       	adc	r16, r16
    1b94:	0c 25       	eor	r16, r12
    1b96:	cf 2c       	mov	r12, r15
    1b98:	fe 2c       	mov	r15, r14
    1b9a:	ed 2c       	mov	r14, r13
    1b9c:	d0 2e       	mov	r13, r16
    1b9e:	41 92       	st	Z+, r4
    1ba0:	51 92       	st	Z+, r5
    1ba2:	61 92       	st	Z+, r6
    1ba4:	71 92       	st	Z+, r7
    1ba6:	c1 92       	st	Z+, r12
    1ba8:	d1 92       	st	Z+, r13
    1baa:	e1 92       	st	Z+, r14
    1bac:	f1 92       	st	Z+, r15
    1bae:	81 92       	st	Z+, r8
    1bb0:	91 92       	st	Z+, r9
    1bb2:	a1 92       	st	Z+, r10
    1bb4:	b1 92       	st	Z+, r11
    1bb6:	01 92       	st	Z+, r0
    1bb8:	11 92       	st	Z+, r1
    1bba:	21 92       	st	Z+, r2
    1bbc:	31 92       	st	Z+, r3
    1bbe:	7c 85       	ldd	r23, Y+12	; 0x0c
    1bc0:	8d 85       	ldd	r24, Y+13	; 0x0d
    1bc2:	9e 85       	ldd	r25, Y+14	; 0x0e
    1bc4:	af 85       	ldd	r26, Y+15	; 0x0f
    1bc6:	bb 27       	eor	r27, r27
    1bc8:	a6 95       	lsr	r26
    1bca:	97 95       	ror	r25
    1bcc:	87 95       	ror	r24
    1bce:	77 95       	ror	r23
    1bd0:	b7 95       	ror	r27
    1bd2:	ba 27       	eor	r27, r26
    1bd4:	a9 2f       	mov	r26, r25
    1bd6:	98 2f       	mov	r25, r24
    1bd8:	87 2f       	mov	r24, r23
    1bda:	7b 2f       	mov	r23, r27
    1bdc:	07 0e       	add	r0, r23
    1bde:	18 1e       	adc	r1, r24
    1be0:	29 1e       	adc	r2, r25
    1be2:	3a 1e       	adc	r3, r26
    1be4:	00 27       	eor	r16, r16
    1be6:	00 0c       	add	r0, r0
    1be8:	11 1c       	adc	r1, r1
    1bea:	22 1c       	adc	r2, r2
    1bec:	33 1c       	adc	r3, r3
    1bee:	00 1f       	adc	r16, r16
    1bf0:	00 26       	eor	r0, r16
    1bf2:	bb 27       	eor	r27, r27
    1bf4:	77 0f       	add	r23, r23
    1bf6:	88 1f       	adc	r24, r24
    1bf8:	99 1f       	adc	r25, r25
    1bfa:	aa 1f       	adc	r26, r26
    1bfc:	bb 1f       	adc	r27, r27
    1bfe:	7b 27       	eor	r23, r27
    1c00:	47 0e       	add	r4, r23
    1c02:	58 1e       	adc	r5, r24
    1c04:	69 1e       	adc	r6, r25
    1c06:	7a 1e       	adc	r7, r26
    1c08:	00 27       	eor	r16, r16
    1c0a:	44 0c       	add	r4, r4
    1c0c:	55 1c       	adc	r5, r5
    1c0e:	66 1c       	adc	r6, r6
    1c10:	77 1c       	adc	r7, r7
    1c12:	00 1f       	adc	r16, r16
    1c14:	44 0c       	add	r4, r4
    1c16:	55 1c       	adc	r5, r5
    1c18:	66 1c       	adc	r6, r6
    1c1a:	77 1c       	adc	r7, r7
    1c1c:	00 1f       	adc	r16, r16
    1c1e:	44 0c       	add	r4, r4
    1c20:	55 1c       	adc	r5, r5
    1c22:	66 1c       	adc	r6, r6
    1c24:	77 1c       	adc	r7, r7
    1c26:	00 1f       	adc	r16, r16
    1c28:	40 26       	eor	r4, r16
    1c2a:	bb 27       	eor	r27, r27
    1c2c:	77 0f       	add	r23, r23
    1c2e:	88 1f       	adc	r24, r24
    1c30:	99 1f       	adc	r25, r25
    1c32:	aa 1f       	adc	r26, r26
    1c34:	bb 1f       	adc	r27, r27
    1c36:	7b 27       	eor	r23, r27
    1c38:	87 0e       	add	r8, r23
    1c3a:	98 1e       	adc	r9, r24
    1c3c:	a9 1e       	adc	r10, r25
    1c3e:	ba 1e       	adc	r11, r26
    1c40:	00 27       	eor	r16, r16
    1c42:	b6 94       	lsr	r11
    1c44:	a7 94       	ror	r10
    1c46:	97 94       	ror	r9
    1c48:	87 94       	ror	r8
    1c4a:	07 95       	ror	r16
    1c4c:	b6 94       	lsr	r11
    1c4e:	a7 94       	ror	r10
    1c50:	97 94       	ror	r9
    1c52:	87 94       	ror	r8
    1c54:	07 95       	ror	r16
    1c56:	0b 25       	eor	r16, r11
    1c58:	ba 2c       	mov	r11, r10
    1c5a:	a9 2c       	mov	r10, r9
    1c5c:	98 2c       	mov	r9, r8
    1c5e:	80 2e       	mov	r8, r16
    1c60:	bb 27       	eor	r27, r27
    1c62:	77 0f       	add	r23, r23
    1c64:	88 1f       	adc	r24, r24
    1c66:	99 1f       	adc	r25, r25
    1c68:	aa 1f       	adc	r26, r26
    1c6a:	bb 1f       	adc	r27, r27
    1c6c:	7b 27       	eor	r23, r27
    1c6e:	c7 0e       	add	r12, r23
    1c70:	d8 1e       	adc	r13, r24
    1c72:	e9 1e       	adc	r14, r25
    1c74:	fa 1e       	adc	r15, r26
    1c76:	00 27       	eor	r16, r16
    1c78:	cc 0c       	add	r12, r12
    1c7a:	dd 1c       	adc	r13, r13
    1c7c:	ee 1c       	adc	r14, r14
    1c7e:	ff 1c       	adc	r15, r15
    1c80:	00 1f       	adc	r16, r16
    1c82:	cc 0c       	add	r12, r12
    1c84:	dd 1c       	adc	r13, r13
    1c86:	ee 1c       	adc	r14, r14
    1c88:	ff 1c       	adc	r15, r15
    1c8a:	00 1f       	adc	r16, r16
    1c8c:	cc 0c       	add	r12, r12
    1c8e:	dd 1c       	adc	r13, r13
    1c90:	ee 1c       	adc	r14, r14
    1c92:	ff 1c       	adc	r15, r15
    1c94:	00 1f       	adc	r16, r16
    1c96:	0c 25       	eor	r16, r12
    1c98:	cf 2c       	mov	r12, r15
    1c9a:	fe 2c       	mov	r15, r14
    1c9c:	ed 2c       	mov	r14, r13
    1c9e:	d0 2e       	mov	r13, r16
    1ca0:	41 92       	st	Z+, r4
    1ca2:	51 92       	st	Z+, r5
    1ca4:	61 92       	st	Z+, r6
    1ca6:	71 92       	st	Z+, r7
    1ca8:	c1 92       	st	Z+, r12
    1caa:	d1 92       	st	Z+, r13
    1cac:	e1 92       	st	Z+, r14
    1cae:	f1 92       	st	Z+, r15
    1cb0:	81 92       	st	Z+, r8
    1cb2:	91 92       	st	Z+, r9
    1cb4:	a1 92       	st	Z+, r10
    1cb6:	b1 92       	st	Z+, r11
    1cb8:	01 92       	st	Z+, r0
    1cba:	11 92       	st	Z+, r1
    1cbc:	21 92       	st	Z+, r2
    1cbe:	31 92       	st	Z+, r3
    1cc0:	7b 81       	ldd	r23, Y+3	; 0x03
    1cc2:	88 81       	ld	r24, Y
    1cc4:	99 81       	ldd	r25, Y+1	; 0x01
    1cc6:	aa 81       	ldd	r26, Y+2	; 0x02
    1cc8:	07 0e       	add	r0, r23
    1cca:	18 1e       	adc	r1, r24
    1ccc:	29 1e       	adc	r2, r25
    1cce:	3a 1e       	adc	r3, r26
    1cd0:	00 27       	eor	r16, r16
    1cd2:	00 0c       	add	r0, r0
    1cd4:	11 1c       	adc	r1, r1
    1cd6:	22 1c       	adc	r2, r2
    1cd8:	33 1c       	adc	r3, r3
    1cda:	00 1f       	adc	r16, r16
    1cdc:	00 26       	eor	r0, r16
    1cde:	bb 27       	eor	r27, r27
    1ce0:	77 0f       	add	r23, r23
    1ce2:	88 1f       	adc	r24, r24
    1ce4:	99 1f       	adc	r25, r25
    1ce6:	aa 1f       	adc	r26, r26
    1ce8:	bb 1f       	adc	r27, r27
    1cea:	7b 27       	eor	r23, r27
    1cec:	47 0e       	add	r4, r23
    1cee:	58 1e       	adc	r5, r24
    1cf0:	69 1e       	adc	r6, r25
    1cf2:	7a 1e       	adc	r7, r26
    1cf4:	00 27       	eor	r16, r16
    1cf6:	44 0c       	add	r4, r4
    1cf8:	55 1c       	adc	r5, r5
    1cfa:	66 1c       	adc	r6, r6
    1cfc:	77 1c       	adc	r7, r7
    1cfe:	00 1f       	adc	r16, r16
    1d00:	44 0c       	add	r4, r4
    1d02:	55 1c       	adc	r5, r5
    1d04:	66 1c       	adc	r6, r6
    1d06:	77 1c       	adc	r7, r7
    1d08:	00 1f       	adc	r16, r16
    1d0a:	44 0c       	add	r4, r4
    1d0c:	55 1c       	adc	r5, r5
    1d0e:	66 1c       	adc	r6, r6
    1d10:	77 1c       	adc	r7, r7
    1d12:	00 1f       	adc	r16, r16
    1d14:	40 26       	eor	r4, r16
    1d16:	bb 27       	eor	r27, r27
    1d18:	77 0f       	add	r23, r23
    1d1a:	88 1f       	adc	r24, r24
    1d1c:	99 1f       	adc	r25, r25
    1d1e:	aa 1f       	adc	r26, r26
    1d20:	bb 1f       	adc	r27, r27
    1d22:	7b 27       	eor	r23, r27
    1d24:	87 0e       	add	r8, r23
    1d26:	98 1e       	adc	r9, r24
    1d28:	a9 1e       	adc	r10, r25
    1d2a:	ba 1e       	adc	r11, r26
    1d2c:	00 27       	eor	r16, r16
    1d2e:	b6 94       	lsr	r11
    1d30:	a7 94       	ror	r10
    1d32:	97 94       	ror	r9
    1d34:	87 94       	ror	r8
    1d36:	07 95       	ror	r16
    1d38:	b6 94       	lsr	r11
    1d3a:	a7 94       	ror	r10
    1d3c:	97 94       	ror	r9
    1d3e:	87 94       	ror	r8
    1d40:	07 95       	ror	r16
    1d42:	0b 25       	eor	r16, r11
    1d44:	ba 2c       	mov	r11, r10
    1d46:	a9 2c       	mov	r10, r9
    1d48:	98 2c       	mov	r9, r8
    1d4a:	80 2e       	mov	r8, r16
    1d4c:	bb 27       	eor	r27, r27
    1d4e:	77 0f       	add	r23, r23
    1d50:	88 1f       	adc	r24, r24
    1d52:	99 1f       	adc	r25, r25
    1d54:	aa 1f       	adc	r26, r26
    1d56:	bb 1f       	adc	r27, r27
    1d58:	7b 27       	eor	r23, r27
    1d5a:	c7 0e       	add	r12, r23
    1d5c:	d8 1e       	adc	r13, r24
    1d5e:	e9 1e       	adc	r14, r25
    1d60:	fa 1e       	adc	r15, r26
    1d62:	00 27       	eor	r16, r16
    1d64:	cc 0c       	add	r12, r12
    1d66:	dd 1c       	adc	r13, r13
    1d68:	ee 1c       	adc	r14, r14
    1d6a:	ff 1c       	adc	r15, r15
    1d6c:	00 1f       	adc	r16, r16
    1d6e:	cc 0c       	add	r12, r12
    1d70:	dd 1c       	adc	r13, r13
    1d72:	ee 1c       	adc	r14, r14
    1d74:	ff 1c       	adc	r15, r15
    1d76:	00 1f       	adc	r16, r16
    1d78:	cc 0c       	add	r12, r12
    1d7a:	dd 1c       	adc	r13, r13
    1d7c:	ee 1c       	adc	r14, r14
    1d7e:	ff 1c       	adc	r15, r15
    1d80:	00 1f       	adc	r16, r16
    1d82:	0c 25       	eor	r16, r12
    1d84:	cf 2c       	mov	r12, r15
    1d86:	fe 2c       	mov	r15, r14
    1d88:	ed 2c       	mov	r14, r13
    1d8a:	d0 2e       	mov	r13, r16
    1d8c:	41 92       	st	Z+, r4
    1d8e:	51 92       	st	Z+, r5
    1d90:	61 92       	st	Z+, r6
    1d92:	71 92       	st	Z+, r7
    1d94:	c1 92       	st	Z+, r12
    1d96:	d1 92       	st	Z+, r13
    1d98:	e1 92       	st	Z+, r14
    1d9a:	f1 92       	st	Z+, r15
    1d9c:	81 92       	st	Z+, r8
    1d9e:	91 92       	st	Z+, r9
    1da0:	a1 92       	st	Z+, r10
    1da2:	b1 92       	st	Z+, r11
    1da4:	01 92       	st	Z+, r0
    1da6:	11 92       	st	Z+, r1
    1da8:	21 92       	st	Z+, r2
    1daa:	31 92       	st	Z+, r3
    1dac:	7f 81       	ldd	r23, Y+7	; 0x07
    1dae:	8c 81       	ldd	r24, Y+4	; 0x04
    1db0:	9d 81       	ldd	r25, Y+5	; 0x05
    1db2:	ae 81       	ldd	r26, Y+6	; 0x06
    1db4:	bb 27       	eor	r27, r27
    1db6:	77 0f       	add	r23, r23
    1db8:	88 1f       	adc	r24, r24
    1dba:	99 1f       	adc	r25, r25
    1dbc:	aa 1f       	adc	r26, r26
    1dbe:	bb 1f       	adc	r27, r27
    1dc0:	7b 27       	eor	r23, r27
    1dc2:	07 0e       	add	r0, r23
    1dc4:	18 1e       	adc	r1, r24
    1dc6:	29 1e       	adc	r2, r25
    1dc8:	3a 1e       	adc	r3, r26
    1dca:	00 27       	eor	r16, r16
    1dcc:	00 0c       	add	r0, r0
    1dce:	11 1c       	adc	r1, r1
    1dd0:	22 1c       	adc	r2, r2
    1dd2:	33 1c       	adc	r3, r3
    1dd4:	00 1f       	adc	r16, r16
    1dd6:	00 26       	eor	r0, r16
    1dd8:	bb 27       	eor	r27, r27
    1dda:	77 0f       	add	r23, r23
    1ddc:	88 1f       	adc	r24, r24
    1dde:	99 1f       	adc	r25, r25
    1de0:	aa 1f       	adc	r26, r26
    1de2:	bb 1f       	adc	r27, r27
    1de4:	7b 27       	eor	r23, r27
    1de6:	47 0e       	add	r4, r23
    1de8:	58 1e       	adc	r5, r24
    1dea:	69 1e       	adc	r6, r25
    1dec:	7a 1e       	adc	r7, r26
    1dee:	00 27       	eor	r16, r16
    1df0:	44 0c       	add	r4, r4
    1df2:	55 1c       	adc	r5, r5
    1df4:	66 1c       	adc	r6, r6
    1df6:	77 1c       	adc	r7, r7
    1df8:	00 1f       	adc	r16, r16
    1dfa:	44 0c       	add	r4, r4
    1dfc:	55 1c       	adc	r5, r5
    1dfe:	66 1c       	adc	r6, r6
    1e00:	77 1c       	adc	r7, r7
    1e02:	00 1f       	adc	r16, r16
    1e04:	44 0c       	add	r4, r4
    1e06:	55 1c       	adc	r5, r5
    1e08:	66 1c       	adc	r6, r6
    1e0a:	77 1c       	adc	r7, r7
    1e0c:	00 1f       	adc	r16, r16
    1e0e:	40 26       	eor	r4, r16
    1e10:	bb 27       	eor	r27, r27
    1e12:	77 0f       	add	r23, r23
    1e14:	88 1f       	adc	r24, r24
    1e16:	99 1f       	adc	r25, r25
    1e18:	aa 1f       	adc	r26, r26
    1e1a:	bb 1f       	adc	r27, r27
    1e1c:	7b 27       	eor	r23, r27
    1e1e:	87 0e       	add	r8, r23
    1e20:	98 1e       	adc	r9, r24
    1e22:	a9 1e       	adc	r10, r25
    1e24:	ba 1e       	adc	r11, r26
    1e26:	00 27       	eor	r16, r16
    1e28:	b6 94       	lsr	r11
    1e2a:	a7 94       	ror	r10
    1e2c:	97 94       	ror	r9
    1e2e:	87 94       	ror	r8
    1e30:	07 95       	ror	r16
    1e32:	b6 94       	lsr	r11
    1e34:	a7 94       	ror	r10
    1e36:	97 94       	ror	r9
    1e38:	87 94       	ror	r8
    1e3a:	07 95       	ror	r16
    1e3c:	0b 25       	eor	r16, r11
    1e3e:	ba 2c       	mov	r11, r10
    1e40:	a9 2c       	mov	r10, r9
    1e42:	98 2c       	mov	r9, r8
    1e44:	80 2e       	mov	r8, r16
    1e46:	bb 27       	eor	r27, r27
    1e48:	77 0f       	add	r23, r23
    1e4a:	88 1f       	adc	r24, r24
    1e4c:	99 1f       	adc	r25, r25
    1e4e:	aa 1f       	adc	r26, r26
    1e50:	bb 1f       	adc	r27, r27
    1e52:	7b 27       	eor	r23, r27
    1e54:	c7 0e       	add	r12, r23
    1e56:	d8 1e       	adc	r13, r24
    1e58:	e9 1e       	adc	r14, r25
    1e5a:	fa 1e       	adc	r15, r26
    1e5c:	00 27       	eor	r16, r16
    1e5e:	cc 0c       	add	r12, r12
    1e60:	dd 1c       	adc	r13, r13
    1e62:	ee 1c       	adc	r14, r14
    1e64:	ff 1c       	adc	r15, r15
    1e66:	00 1f       	adc	r16, r16
    1e68:	cc 0c       	add	r12, r12
    1e6a:	dd 1c       	adc	r13, r13
    1e6c:	ee 1c       	adc	r14, r14
    1e6e:	ff 1c       	adc	r15, r15
    1e70:	00 1f       	adc	r16, r16
    1e72:	cc 0c       	add	r12, r12
    1e74:	dd 1c       	adc	r13, r13
    1e76:	ee 1c       	adc	r14, r14
    1e78:	ff 1c       	adc	r15, r15
    1e7a:	00 1f       	adc	r16, r16
    1e7c:	0c 25       	eor	r16, r12
    1e7e:	cf 2c       	mov	r12, r15
    1e80:	fe 2c       	mov	r15, r14
    1e82:	ed 2c       	mov	r14, r13
    1e84:	d0 2e       	mov	r13, r16
    1e86:	41 92       	st	Z+, r4
    1e88:	51 92       	st	Z+, r5
    1e8a:	61 92       	st	Z+, r6
    1e8c:	71 92       	st	Z+, r7
    1e8e:	c1 92       	st	Z+, r12
    1e90:	d1 92       	st	Z+, r13
    1e92:	e1 92       	st	Z+, r14
    1e94:	f1 92       	st	Z+, r15
    1e96:	81 92       	st	Z+, r8
    1e98:	91 92       	st	Z+, r9
    1e9a:	a1 92       	st	Z+, r10
    1e9c:	b1 92       	st	Z+, r11
    1e9e:	01 92       	st	Z+, r0
    1ea0:	11 92       	st	Z+, r1
    1ea2:	21 92       	st	Z+, r2
    1ea4:	31 92       	st	Z+, r3
    1ea6:	7b 85       	ldd	r23, Y+11	; 0x0b
    1ea8:	88 85       	ldd	r24, Y+8	; 0x08
    1eaa:	99 85       	ldd	r25, Y+9	; 0x09
    1eac:	aa 85       	ldd	r26, Y+10	; 0x0a
    1eae:	bb 27       	eor	r27, r27
    1eb0:	77 0f       	add	r23, r23
    1eb2:	88 1f       	adc	r24, r24
    1eb4:	99 1f       	adc	r25, r25
    1eb6:	aa 1f       	adc	r26, r26
    1eb8:	bb 1f       	adc	r27, r27
    1eba:	77 0f       	add	r23, r23
    1ebc:	88 1f       	adc	r24, r24
    1ebe:	99 1f       	adc	r25, r25
    1ec0:	aa 1f       	adc	r26, r26
    1ec2:	bb 1f       	adc	r27, r27
    1ec4:	7b 27       	eor	r23, r27
    1ec6:	07 0e       	add	r0, r23
    1ec8:	18 1e       	adc	r1, r24
    1eca:	29 1e       	adc	r2, r25
    1ecc:	3a 1e       	adc	r3, r26
    1ece:	00 27       	eor	r16, r16
    1ed0:	00 0c       	add	r0, r0
    1ed2:	11 1c       	adc	r1, r1
    1ed4:	22 1c       	adc	r2, r2
    1ed6:	33 1c       	adc	r3, r3
    1ed8:	00 1f       	adc	r16, r16
    1eda:	00 26       	eor	r0, r16
    1edc:	bb 27       	eor	r27, r27
    1ede:	77 0f       	add	r23, r23
    1ee0:	88 1f       	adc	r24, r24
    1ee2:	99 1f       	adc	r25, r25
    1ee4:	aa 1f       	adc	r26, r26
    1ee6:	bb 1f       	adc	r27, r27
    1ee8:	7b 27       	eor	r23, r27
    1eea:	47 0e       	add	r4, r23
    1eec:	58 1e       	adc	r5, r24
    1eee:	69 1e       	adc	r6, r25
    1ef0:	7a 1e       	adc	r7, r26
    1ef2:	00 27       	eor	r16, r16
    1ef4:	44 0c       	add	r4, r4
    1ef6:	55 1c       	adc	r5, r5
    1ef8:	66 1c       	adc	r6, r6
    1efa:	77 1c       	adc	r7, r7
    1efc:	00 1f       	adc	r16, r16
    1efe:	44 0c       	add	r4, r4
    1f00:	55 1c       	adc	r5, r5
    1f02:	66 1c       	adc	r6, r6
    1f04:	77 1c       	adc	r7, r7
    1f06:	00 1f       	adc	r16, r16
    1f08:	44 0c       	add	r4, r4
    1f0a:	55 1c       	adc	r5, r5
    1f0c:	66 1c       	adc	r6, r6
    1f0e:	77 1c       	adc	r7, r7
    1f10:	00 1f       	adc	r16, r16
    1f12:	40 26       	eor	r4, r16
    1f14:	bb 27       	eor	r27, r27
    1f16:	77 0f       	add	r23, r23
    1f18:	88 1f       	adc	r24, r24
    1f1a:	99 1f       	adc	r25, r25
    1f1c:	aa 1f       	adc	r26, r26
    1f1e:	bb 1f       	adc	r27, r27
    1f20:	7b 27       	eor	r23, r27
    1f22:	87 0e       	add	r8, r23
    1f24:	98 1e       	adc	r9, r24
    1f26:	a9 1e       	adc	r10, r25
    1f28:	ba 1e       	adc	r11, r26
    1f2a:	00 27       	eor	r16, r16
    1f2c:	b6 94       	lsr	r11
    1f2e:	a7 94       	ror	r10
    1f30:	97 94       	ror	r9
    1f32:	87 94       	ror	r8
    1f34:	07 95       	ror	r16
    1f36:	b6 94       	lsr	r11
    1f38:	a7 94       	ror	r10
    1f3a:	97 94       	ror	r9
    1f3c:	87 94       	ror	r8
    1f3e:	07 95       	ror	r16
    1f40:	0b 25       	eor	r16, r11
    1f42:	ba 2c       	mov	r11, r10
    1f44:	a9 2c       	mov	r10, r9
    1f46:	98 2c       	mov	r9, r8
    1f48:	80 2e       	mov	r8, r16
    1f4a:	bb 27       	eor	r27, r27
    1f4c:	77 0f       	add	r23, r23
    1f4e:	88 1f       	adc	r24, r24
    1f50:	99 1f       	adc	r25, r25
    1f52:	aa 1f       	adc	r26, r26
    1f54:	bb 1f       	adc	r27, r27
    1f56:	7b 27       	eor	r23, r27
    1f58:	c7 0e       	add	r12, r23
    1f5a:	d8 1e       	adc	r13, r24
    1f5c:	e9 1e       	adc	r14, r25
    1f5e:	fa 1e       	adc	r15, r26
    1f60:	00 27       	eor	r16, r16
    1f62:	cc 0c       	add	r12, r12
    1f64:	dd 1c       	adc	r13, r13
    1f66:	ee 1c       	adc	r14, r14
    1f68:	ff 1c       	adc	r15, r15
    1f6a:	00 1f       	adc	r16, r16
    1f6c:	cc 0c       	add	r12, r12
    1f6e:	dd 1c       	adc	r13, r13
    1f70:	ee 1c       	adc	r14, r14
    1f72:	ff 1c       	adc	r15, r15
    1f74:	00 1f       	adc	r16, r16
    1f76:	cc 0c       	add	r12, r12
    1f78:	dd 1c       	adc	r13, r13
    1f7a:	ee 1c       	adc	r14, r14
    1f7c:	ff 1c       	adc	r15, r15
    1f7e:	00 1f       	adc	r16, r16
    1f80:	0c 25       	eor	r16, r12
    1f82:	cf 2c       	mov	r12, r15
    1f84:	fe 2c       	mov	r15, r14
    1f86:	ed 2c       	mov	r14, r13
    1f88:	d0 2e       	mov	r13, r16
    1f8a:	41 92       	st	Z+, r4
    1f8c:	51 92       	st	Z+, r5
    1f8e:	61 92       	st	Z+, r6
    1f90:	71 92       	st	Z+, r7
    1f92:	c1 92       	st	Z+, r12
    1f94:	d1 92       	st	Z+, r13
    1f96:	e1 92       	st	Z+, r14
    1f98:	f1 92       	st	Z+, r15
    1f9a:	81 92       	st	Z+, r8
    1f9c:	91 92       	st	Z+, r9
    1f9e:	a1 92       	st	Z+, r10
    1fa0:	b1 92       	st	Z+, r11
    1fa2:	01 92       	st	Z+, r0
    1fa4:	11 92       	st	Z+, r1
    1fa6:	21 92       	st	Z+, r2
    1fa8:	31 92       	st	Z+, r3
    1faa:	7f 85       	ldd	r23, Y+15	; 0x0f
    1fac:	8c 85       	ldd	r24, Y+12	; 0x0c
    1fae:	9d 85       	ldd	r25, Y+13	; 0x0d
    1fb0:	ae 85       	ldd	r26, Y+14	; 0x0e
    1fb2:	bb 27       	eor	r27, r27
    1fb4:	77 0f       	add	r23, r23
    1fb6:	88 1f       	adc	r24, r24
    1fb8:	99 1f       	adc	r25, r25
    1fba:	aa 1f       	adc	r26, r26
    1fbc:	bb 1f       	adc	r27, r27
    1fbe:	77 0f       	add	r23, r23
    1fc0:	88 1f       	adc	r24, r24
    1fc2:	99 1f       	adc	r25, r25
    1fc4:	aa 1f       	adc	r26, r26
    1fc6:	bb 1f       	adc	r27, r27
    1fc8:	77 0f       	add	r23, r23
    1fca:	88 1f       	adc	r24, r24
    1fcc:	99 1f       	adc	r25, r25
    1fce:	aa 1f       	adc	r26, r26
    1fd0:	bb 1f       	adc	r27, r27
    1fd2:	7b 27       	eor	r23, r27
    1fd4:	07 0e       	add	r0, r23
    1fd6:	18 1e       	adc	r1, r24
    1fd8:	29 1e       	adc	r2, r25
    1fda:	3a 1e       	adc	r3, r26
    1fdc:	00 27       	eor	r16, r16
    1fde:	00 0c       	add	r0, r0
    1fe0:	11 1c       	adc	r1, r1
    1fe2:	22 1c       	adc	r2, r2
    1fe4:	33 1c       	adc	r3, r3
    1fe6:	00 1f       	adc	r16, r16
    1fe8:	00 26       	eor	r0, r16
    1fea:	bb 27       	eor	r27, r27
    1fec:	77 0f       	add	r23, r23
    1fee:	88 1f       	adc	r24, r24
    1ff0:	99 1f       	adc	r25, r25
    1ff2:	aa 1f       	adc	r26, r26
    1ff4:	bb 1f       	adc	r27, r27
    1ff6:	7b 27       	eor	r23, r27
    1ff8:	47 0e       	add	r4, r23
    1ffa:	58 1e       	adc	r5, r24
    1ffc:	69 1e       	adc	r6, r25
    1ffe:	7a 1e       	adc	r7, r26
    2000:	00 27       	eor	r16, r16
    2002:	44 0c       	add	r4, r4
    2004:	55 1c       	adc	r5, r5
    2006:	66 1c       	adc	r6, r6
    2008:	77 1c       	adc	r7, r7
    200a:	00 1f       	adc	r16, r16
    200c:	44 0c       	add	r4, r4
    200e:	55 1c       	adc	r5, r5
    2010:	66 1c       	adc	r6, r6
    2012:	77 1c       	adc	r7, r7
    2014:	00 1f       	adc	r16, r16
    2016:	44 0c       	add	r4, r4
    2018:	55 1c       	adc	r5, r5
    201a:	66 1c       	adc	r6, r6
    201c:	77 1c       	adc	r7, r7
    201e:	00 1f       	adc	r16, r16
    2020:	40 26       	eor	r4, r16
    2022:	bb 27       	eor	r27, r27
    2024:	77 0f       	add	r23, r23
    2026:	88 1f       	adc	r24, r24
    2028:	99 1f       	adc	r25, r25
    202a:	aa 1f       	adc	r26, r26
    202c:	bb 1f       	adc	r27, r27
    202e:	7b 27       	eor	r23, r27
    2030:	87 0e       	add	r8, r23
    2032:	98 1e       	adc	r9, r24
    2034:	a9 1e       	adc	r10, r25
    2036:	ba 1e       	adc	r11, r26
    2038:	00 27       	eor	r16, r16
    203a:	b6 94       	lsr	r11
    203c:	a7 94       	ror	r10
    203e:	97 94       	ror	r9
    2040:	87 94       	ror	r8
    2042:	07 95       	ror	r16
    2044:	b6 94       	lsr	r11
    2046:	a7 94       	ror	r10
    2048:	97 94       	ror	r9
    204a:	87 94       	ror	r8
    204c:	07 95       	ror	r16
    204e:	0b 25       	eor	r16, r11
    2050:	ba 2c       	mov	r11, r10
    2052:	a9 2c       	mov	r10, r9
    2054:	98 2c       	mov	r9, r8
    2056:	80 2e       	mov	r8, r16
    2058:	bb 27       	eor	r27, r27
    205a:	77 0f       	add	r23, r23
    205c:	88 1f       	adc	r24, r24
    205e:	99 1f       	adc	r25, r25
    2060:	aa 1f       	adc	r26, r26
    2062:	bb 1f       	adc	r27, r27
    2064:	7b 27       	eor	r23, r27
    2066:	c7 0e       	add	r12, r23
    2068:	d8 1e       	adc	r13, r24
    206a:	e9 1e       	adc	r14, r25
    206c:	fa 1e       	adc	r15, r26
    206e:	00 27       	eor	r16, r16
    2070:	cc 0c       	add	r12, r12
    2072:	dd 1c       	adc	r13, r13
    2074:	ee 1c       	adc	r14, r14
    2076:	ff 1c       	adc	r15, r15
    2078:	00 1f       	adc	r16, r16
    207a:	cc 0c       	add	r12, r12
    207c:	dd 1c       	adc	r13, r13
    207e:	ee 1c       	adc	r14, r14
    2080:	ff 1c       	adc	r15, r15
    2082:	00 1f       	adc	r16, r16
    2084:	cc 0c       	add	r12, r12
    2086:	dd 1c       	adc	r13, r13
    2088:	ee 1c       	adc	r14, r14
    208a:	ff 1c       	adc	r15, r15
    208c:	00 1f       	adc	r16, r16
    208e:	0c 25       	eor	r16, r12
    2090:	cf 2c       	mov	r12, r15
    2092:	fe 2c       	mov	r15, r14
    2094:	ed 2c       	mov	r14, r13
    2096:	d0 2e       	mov	r13, r16
    2098:	41 92       	st	Z+, r4
    209a:	51 92       	st	Z+, r5
    209c:	61 92       	st	Z+, r6
    209e:	71 92       	st	Z+, r7
    20a0:	c1 92       	st	Z+, r12
    20a2:	d1 92       	st	Z+, r13
    20a4:	e1 92       	st	Z+, r14
    20a6:	f1 92       	st	Z+, r15
    20a8:	81 92       	st	Z+, r8
    20aa:	91 92       	st	Z+, r9
    20ac:	a1 92       	st	Z+, r10
    20ae:	b1 92       	st	Z+, r11
    20b0:	01 92       	st	Z+, r0
    20b2:	11 92       	st	Z+, r1
    20b4:	21 92       	st	Z+, r2
    20b6:	31 92       	st	Z+, r3
    20b8:	7b 81       	ldd	r23, Y+3	; 0x03
    20ba:	88 81       	ld	r24, Y
    20bc:	99 81       	ldd	r25, Y+1	; 0x01
    20be:	aa 81       	ldd	r26, Y+2	; 0x02
    20c0:	bb 27       	eor	r27, r27
    20c2:	77 0f       	add	r23, r23
    20c4:	88 1f       	adc	r24, r24
    20c6:	99 1f       	adc	r25, r25
    20c8:	aa 1f       	adc	r26, r26
    20ca:	bb 1f       	adc	r27, r27
    20cc:	77 0f       	add	r23, r23
    20ce:	88 1f       	adc	r24, r24
    20d0:	99 1f       	adc	r25, r25
    20d2:	aa 1f       	adc	r26, r26
    20d4:	bb 1f       	adc	r27, r27
    20d6:	77 0f       	add	r23, r23
    20d8:	88 1f       	adc	r24, r24
    20da:	99 1f       	adc	r25, r25
    20dc:	aa 1f       	adc	r26, r26
    20de:	bb 1f       	adc	r27, r27
    20e0:	77 0f       	add	r23, r23
    20e2:	88 1f       	adc	r24, r24
    20e4:	99 1f       	adc	r25, r25
    20e6:	aa 1f       	adc	r26, r26
    20e8:	bb 1f       	adc	r27, r27
    20ea:	7b 27       	eor	r23, r27
    20ec:	07 0e       	add	r0, r23
    20ee:	18 1e       	adc	r1, r24
    20f0:	29 1e       	adc	r2, r25
    20f2:	3a 1e       	adc	r3, r26
    20f4:	00 27       	eor	r16, r16
    20f6:	00 0c       	add	r0, r0
    20f8:	11 1c       	adc	r1, r1
    20fa:	22 1c       	adc	r2, r2
    20fc:	33 1c       	adc	r3, r3
    20fe:	00 1f       	adc	r16, r16
    2100:	00 26       	eor	r0, r16
    2102:	bb 27       	eor	r27, r27
    2104:	77 0f       	add	r23, r23
    2106:	88 1f       	adc	r24, r24
    2108:	99 1f       	adc	r25, r25
    210a:	aa 1f       	adc	r26, r26
    210c:	bb 1f       	adc	r27, r27
    210e:	7b 27       	eor	r23, r27
    2110:	47 0e       	add	r4, r23
    2112:	58 1e       	adc	r5, r24
    2114:	69 1e       	adc	r6, r25
    2116:	7a 1e       	adc	r7, r26
    2118:	00 27       	eor	r16, r16
    211a:	44 0c       	add	r4, r4
    211c:	55 1c       	adc	r5, r5
    211e:	66 1c       	adc	r6, r6
    2120:	77 1c       	adc	r7, r7
    2122:	00 1f       	adc	r16, r16
    2124:	44 0c       	add	r4, r4
    2126:	55 1c       	adc	r5, r5
    2128:	66 1c       	adc	r6, r6
    212a:	77 1c       	adc	r7, r7
    212c:	00 1f       	adc	r16, r16
    212e:	44 0c       	add	r4, r4
    2130:	55 1c       	adc	r5, r5
    2132:	66 1c       	adc	r6, r6
    2134:	77 1c       	adc	r7, r7
    2136:	00 1f       	adc	r16, r16
    2138:	40 26       	eor	r4, r16
    213a:	bb 27       	eor	r27, r27
    213c:	77 0f       	add	r23, r23
    213e:	88 1f       	adc	r24, r24
    2140:	99 1f       	adc	r25, r25
    2142:	aa 1f       	adc	r26, r26
    2144:	bb 1f       	adc	r27, r27
    2146:	7b 27       	eor	r23, r27
    2148:	87 0e       	add	r8, r23
    214a:	98 1e       	adc	r9, r24
    214c:	a9 1e       	adc	r10, r25
    214e:	ba 1e       	adc	r11, r26
    2150:	00 27       	eor	r16, r16
    2152:	b6 94       	lsr	r11
    2154:	a7 94       	ror	r10
    2156:	97 94       	ror	r9
    2158:	87 94       	ror	r8
    215a:	07 95       	ror	r16
    215c:	b6 94       	lsr	r11
    215e:	a7 94       	ror	r10
    2160:	97 94       	ror	r9
    2162:	87 94       	ror	r8
    2164:	07 95       	ror	r16
    2166:	0b 25       	eor	r16, r11
    2168:	ba 2c       	mov	r11, r10
    216a:	a9 2c       	mov	r10, r9
    216c:	98 2c       	mov	r9, r8
    216e:	80 2e       	mov	r8, r16
    2170:	bb 27       	eor	r27, r27
    2172:	77 0f       	add	r23, r23
    2174:	88 1f       	adc	r24, r24
    2176:	99 1f       	adc	r25, r25
    2178:	aa 1f       	adc	r26, r26
    217a:	bb 1f       	adc	r27, r27
    217c:	7b 27       	eor	r23, r27
    217e:	c7 0e       	add	r12, r23
    2180:	d8 1e       	adc	r13, r24
    2182:	e9 1e       	adc	r14, r25
    2184:	fa 1e       	adc	r15, r26
    2186:	00 27       	eor	r16, r16
    2188:	cc 0c       	add	r12, r12
    218a:	dd 1c       	adc	r13, r13
    218c:	ee 1c       	adc	r14, r14
    218e:	ff 1c       	adc	r15, r15
    2190:	00 1f       	adc	r16, r16
    2192:	cc 0c       	add	r12, r12
    2194:	dd 1c       	adc	r13, r13
    2196:	ee 1c       	adc	r14, r14
    2198:	ff 1c       	adc	r15, r15
    219a:	00 1f       	adc	r16, r16
    219c:	cc 0c       	add	r12, r12
    219e:	dd 1c       	adc	r13, r13
    21a0:	ee 1c       	adc	r14, r14
    21a2:	ff 1c       	adc	r15, r15
    21a4:	00 1f       	adc	r16, r16
    21a6:	0c 25       	eor	r16, r12
    21a8:	cf 2c       	mov	r12, r15
    21aa:	fe 2c       	mov	r15, r14
    21ac:	ed 2c       	mov	r14, r13
    21ae:	d0 2e       	mov	r13, r16
    21b0:	41 92       	st	Z+, r4
    21b2:	51 92       	st	Z+, r5
    21b4:	61 92       	st	Z+, r6
    21b6:	71 92       	st	Z+, r7
    21b8:	c1 92       	st	Z+, r12
    21ba:	d1 92       	st	Z+, r13
    21bc:	e1 92       	st	Z+, r14
    21be:	f1 92       	st	Z+, r15
    21c0:	81 92       	st	Z+, r8
    21c2:	91 92       	st	Z+, r9
    21c4:	a1 92       	st	Z+, r10
    21c6:	b1 92       	st	Z+, r11
    21c8:	01 92       	st	Z+, r0
    21ca:	11 92       	st	Z+, r1
    21cc:	21 92       	st	Z+, r2
    21ce:	31 92       	st	Z+, r3
    21d0:	7f 81       	ldd	r23, Y+7	; 0x07
    21d2:	8c 81       	ldd	r24, Y+4	; 0x04
    21d4:	9d 81       	ldd	r25, Y+5	; 0x05
    21d6:	ae 81       	ldd	r26, Y+6	; 0x06
    21d8:	bb 27       	eor	r27, r27
    21da:	a6 95       	lsr	r26
    21dc:	97 95       	ror	r25
    21de:	87 95       	ror	r24
    21e0:	77 95       	ror	r23
    21e2:	b7 95       	ror	r27
    21e4:	a6 95       	lsr	r26
    21e6:	97 95       	ror	r25
    21e8:	87 95       	ror	r24
    21ea:	77 95       	ror	r23
    21ec:	b7 95       	ror	r27
    21ee:	a6 95       	lsr	r26
    21f0:	97 95       	ror	r25
    21f2:	87 95       	ror	r24
    21f4:	77 95       	ror	r23
    21f6:	b7 95       	ror	r27
    21f8:	ba 27       	eor	r27, r26
    21fa:	a9 2f       	mov	r26, r25
    21fc:	98 2f       	mov	r25, r24
    21fe:	87 2f       	mov	r24, r23
    2200:	7b 2f       	mov	r23, r27
    2202:	07 0e       	add	r0, r23
    2204:	18 1e       	adc	r1, r24
    2206:	29 1e       	adc	r2, r25
    2208:	3a 1e       	adc	r3, r26
    220a:	00 27       	eor	r16, r16
    220c:	00 0c       	add	r0, r0
    220e:	11 1c       	adc	r1, r1
    2210:	22 1c       	adc	r2, r2
    2212:	33 1c       	adc	r3, r3
    2214:	00 1f       	adc	r16, r16
    2216:	00 26       	eor	r0, r16
    2218:	bb 27       	eor	r27, r27
    221a:	77 0f       	add	r23, r23
    221c:	88 1f       	adc	r24, r24
    221e:	99 1f       	adc	r25, r25
    2220:	aa 1f       	adc	r26, r26
    2222:	bb 1f       	adc	r27, r27
    2224:	7b 27       	eor	r23, r27
    2226:	47 0e       	add	r4, r23
    2228:	58 1e       	adc	r5, r24
    222a:	69 1e       	adc	r6, r25
    222c:	7a 1e       	adc	r7, r26
    222e:	00 27       	eor	r16, r16
    2230:	44 0c       	add	r4, r4
    2232:	55 1c       	adc	r5, r5
    2234:	66 1c       	adc	r6, r6
    2236:	77 1c       	adc	r7, r7
    2238:	00 1f       	adc	r16, r16
    223a:	44 0c       	add	r4, r4
    223c:	55 1c       	adc	r5, r5
    223e:	66 1c       	adc	r6, r6
    2240:	77 1c       	adc	r7, r7
    2242:	00 1f       	adc	r16, r16
    2244:	44 0c       	add	r4, r4
    2246:	55 1c       	adc	r5, r5
    2248:	66 1c       	adc	r6, r6
    224a:	77 1c       	adc	r7, r7
    224c:	00 1f       	adc	r16, r16
    224e:	40 26       	eor	r4, r16
    2250:	bb 27       	eor	r27, r27
    2252:	77 0f       	add	r23, r23
    2254:	88 1f       	adc	r24, r24
    2256:	99 1f       	adc	r25, r25
    2258:	aa 1f       	adc	r26, r26
    225a:	bb 1f       	adc	r27, r27
    225c:	7b 27       	eor	r23, r27
    225e:	87 0e       	add	r8, r23
    2260:	98 1e       	adc	r9, r24
    2262:	a9 1e       	adc	r10, r25
    2264:	ba 1e       	adc	r11, r26
    2266:	00 27       	eor	r16, r16
    2268:	b6 94       	lsr	r11
    226a:	a7 94       	ror	r10
    226c:	97 94       	ror	r9
    226e:	87 94       	ror	r8
    2270:	07 95       	ror	r16
    2272:	b6 94       	lsr	r11
    2274:	a7 94       	ror	r10
    2276:	97 94       	ror	r9
    2278:	87 94       	ror	r8
    227a:	07 95       	ror	r16
    227c:	0b 25       	eor	r16, r11
    227e:	ba 2c       	mov	r11, r10
    2280:	a9 2c       	mov	r10, r9
    2282:	98 2c       	mov	r9, r8
    2284:	80 2e       	mov	r8, r16
    2286:	bb 27       	eor	r27, r27
    2288:	77 0f       	add	r23, r23
    228a:	88 1f       	adc	r24, r24
    228c:	99 1f       	adc	r25, r25
    228e:	aa 1f       	adc	r26, r26
    2290:	bb 1f       	adc	r27, r27
    2292:	7b 27       	eor	r23, r27
    2294:	c7 0e       	add	r12, r23
    2296:	d8 1e       	adc	r13, r24
    2298:	e9 1e       	adc	r14, r25
    229a:	fa 1e       	adc	r15, r26
    229c:	00 27       	eor	r16, r16
    229e:	cc 0c       	add	r12, r12
    22a0:	dd 1c       	adc	r13, r13
    22a2:	ee 1c       	adc	r14, r14
    22a4:	ff 1c       	adc	r15, r15
    22a6:	00 1f       	adc	r16, r16
    22a8:	cc 0c       	add	r12, r12
    22aa:	dd 1c       	adc	r13, r13
    22ac:	ee 1c       	adc	r14, r14
    22ae:	ff 1c       	adc	r15, r15
    22b0:	00 1f       	adc	r16, r16
    22b2:	cc 0c       	add	r12, r12
    22b4:	dd 1c       	adc	r13, r13
    22b6:	ee 1c       	adc	r14, r14
    22b8:	ff 1c       	adc	r15, r15
    22ba:	00 1f       	adc	r16, r16
    22bc:	0c 25       	eor	r16, r12
    22be:	cf 2c       	mov	r12, r15
    22c0:	fe 2c       	mov	r15, r14
    22c2:	ed 2c       	mov	r14, r13
    22c4:	d0 2e       	mov	r13, r16
    22c6:	41 92       	st	Z+, r4
    22c8:	51 92       	st	Z+, r5
    22ca:	61 92       	st	Z+, r6
    22cc:	71 92       	st	Z+, r7
    22ce:	c1 92       	st	Z+, r12
    22d0:	d1 92       	st	Z+, r13
    22d2:	e1 92       	st	Z+, r14
    22d4:	f1 92       	st	Z+, r15
    22d6:	81 92       	st	Z+, r8
    22d8:	91 92       	st	Z+, r9
    22da:	a1 92       	st	Z+, r10
    22dc:	b1 92       	st	Z+, r11
    22de:	01 92       	st	Z+, r0
    22e0:	11 92       	st	Z+, r1
    22e2:	21 92       	st	Z+, r2
    22e4:	31 92       	st	Z+, r3
    22e6:	7b 85       	ldd	r23, Y+11	; 0x0b
    22e8:	88 85       	ldd	r24, Y+8	; 0x08
    22ea:	99 85       	ldd	r25, Y+9	; 0x09
    22ec:	aa 85       	ldd	r26, Y+10	; 0x0a
    22ee:	bb 27       	eor	r27, r27
    22f0:	a6 95       	lsr	r26
    22f2:	97 95       	ror	r25
    22f4:	87 95       	ror	r24
    22f6:	77 95       	ror	r23
    22f8:	b7 95       	ror	r27
    22fa:	a6 95       	lsr	r26
    22fc:	97 95       	ror	r25
    22fe:	87 95       	ror	r24
    2300:	77 95       	ror	r23
    2302:	b7 95       	ror	r27
    2304:	ba 27       	eor	r27, r26
    2306:	a9 2f       	mov	r26, r25
    2308:	98 2f       	mov	r25, r24
    230a:	87 2f       	mov	r24, r23
    230c:	7b 2f       	mov	r23, r27
    230e:	07 0e       	add	r0, r23
    2310:	18 1e       	adc	r1, r24
    2312:	29 1e       	adc	r2, r25
    2314:	3a 1e       	adc	r3, r26
    2316:	00 27       	eor	r16, r16
    2318:	00 0c       	add	r0, r0
    231a:	11 1c       	adc	r1, r1
    231c:	22 1c       	adc	r2, r2
    231e:	33 1c       	adc	r3, r3
    2320:	00 1f       	adc	r16, r16
    2322:	00 26       	eor	r0, r16
    2324:	bb 27       	eor	r27, r27
    2326:	77 0f       	add	r23, r23
    2328:	88 1f       	adc	r24, r24
    232a:	99 1f       	adc	r25, r25
    232c:	aa 1f       	adc	r26, r26
    232e:	bb 1f       	adc	r27, r27
    2330:	7b 27       	eor	r23, r27
    2332:	47 0e       	add	r4, r23
    2334:	58 1e       	adc	r5, r24
    2336:	69 1e       	adc	r6, r25
    2338:	7a 1e       	adc	r7, r26
    233a:	00 27       	eor	r16, r16
    233c:	44 0c       	add	r4, r4
    233e:	55 1c       	adc	r5, r5
    2340:	66 1c       	adc	r6, r6
    2342:	77 1c       	adc	r7, r7
    2344:	00 1f       	adc	r16, r16
    2346:	44 0c       	add	r4, r4
    2348:	55 1c       	adc	r5, r5
    234a:	66 1c       	adc	r6, r6
    234c:	77 1c       	adc	r7, r7
    234e:	00 1f       	adc	r16, r16
    2350:	44 0c       	add	r4, r4
    2352:	55 1c       	adc	r5, r5
    2354:	66 1c       	adc	r6, r6
    2356:	77 1c       	adc	r7, r7
    2358:	00 1f       	adc	r16, r16
    235a:	40 26       	eor	r4, r16
    235c:	bb 27       	eor	r27, r27
    235e:	77 0f       	add	r23, r23
    2360:	88 1f       	adc	r24, r24
    2362:	99 1f       	adc	r25, r25
    2364:	aa 1f       	adc	r26, r26
    2366:	bb 1f       	adc	r27, r27
    2368:	7b 27       	eor	r23, r27
    236a:	87 0e       	add	r8, r23
    236c:	98 1e       	adc	r9, r24
    236e:	a9 1e       	adc	r10, r25
    2370:	ba 1e       	adc	r11, r26
    2372:	00 27       	eor	r16, r16
    2374:	b6 94       	lsr	r11
    2376:	a7 94       	ror	r10
    2378:	97 94       	ror	r9
    237a:	87 94       	ror	r8
    237c:	07 95       	ror	r16
    237e:	b6 94       	lsr	r11
    2380:	a7 94       	ror	r10
    2382:	97 94       	ror	r9
    2384:	87 94       	ror	r8
    2386:	07 95       	ror	r16
    2388:	0b 25       	eor	r16, r11
    238a:	ba 2c       	mov	r11, r10
    238c:	a9 2c       	mov	r10, r9
    238e:	98 2c       	mov	r9, r8
    2390:	80 2e       	mov	r8, r16
    2392:	bb 27       	eor	r27, r27
    2394:	77 0f       	add	r23, r23
    2396:	88 1f       	adc	r24, r24
    2398:	99 1f       	adc	r25, r25
    239a:	aa 1f       	adc	r26, r26
    239c:	bb 1f       	adc	r27, r27
    239e:	7b 27       	eor	r23, r27
    23a0:	c7 0e       	add	r12, r23
    23a2:	d8 1e       	adc	r13, r24
    23a4:	e9 1e       	adc	r14, r25
    23a6:	fa 1e       	adc	r15, r26
    23a8:	00 27       	eor	r16, r16
    23aa:	cc 0c       	add	r12, r12
    23ac:	dd 1c       	adc	r13, r13
    23ae:	ee 1c       	adc	r14, r14
    23b0:	ff 1c       	adc	r15, r15
    23b2:	00 1f       	adc	r16, r16
    23b4:	cc 0c       	add	r12, r12
    23b6:	dd 1c       	adc	r13, r13
    23b8:	ee 1c       	adc	r14, r14
    23ba:	ff 1c       	adc	r15, r15
    23bc:	00 1f       	adc	r16, r16
    23be:	cc 0c       	add	r12, r12
    23c0:	dd 1c       	adc	r13, r13
    23c2:	ee 1c       	adc	r14, r14
    23c4:	ff 1c       	adc	r15, r15
    23c6:	00 1f       	adc	r16, r16
    23c8:	0c 25       	eor	r16, r12
    23ca:	cf 2c       	mov	r12, r15
    23cc:	fe 2c       	mov	r15, r14
    23ce:	ed 2c       	mov	r14, r13
    23d0:	d0 2e       	mov	r13, r16
    23d2:	41 92       	st	Z+, r4
    23d4:	51 92       	st	Z+, r5
    23d6:	61 92       	st	Z+, r6
    23d8:	71 92       	st	Z+, r7
    23da:	c1 92       	st	Z+, r12
    23dc:	d1 92       	st	Z+, r13
    23de:	e1 92       	st	Z+, r14
    23e0:	f1 92       	st	Z+, r15
    23e2:	81 92       	st	Z+, r8
    23e4:	91 92       	st	Z+, r9
    23e6:	a1 92       	st	Z+, r10
    23e8:	b1 92       	st	Z+, r11
    23ea:	01 92       	st	Z+, r0
    23ec:	11 92       	st	Z+, r1
    23ee:	21 92       	st	Z+, r2
    23f0:	31 92       	st	Z+, r3
    23f2:	7f 85       	ldd	r23, Y+15	; 0x0f
    23f4:	8c 85       	ldd	r24, Y+12	; 0x0c
    23f6:	9d 85       	ldd	r25, Y+13	; 0x0d
    23f8:	ae 85       	ldd	r26, Y+14	; 0x0e
    23fa:	bb 27       	eor	r27, r27
    23fc:	a6 95       	lsr	r26
    23fe:	97 95       	ror	r25
    2400:	87 95       	ror	r24
    2402:	77 95       	ror	r23
    2404:	b7 95       	ror	r27
    2406:	ba 27       	eor	r27, r26
    2408:	a9 2f       	mov	r26, r25
    240a:	98 2f       	mov	r25, r24
    240c:	87 2f       	mov	r24, r23
    240e:	7b 2f       	mov	r23, r27
    2410:	07 0e       	add	r0, r23
    2412:	18 1e       	adc	r1, r24
    2414:	29 1e       	adc	r2, r25
    2416:	3a 1e       	adc	r3, r26
    2418:	00 27       	eor	r16, r16
    241a:	00 0c       	add	r0, r0
    241c:	11 1c       	adc	r1, r1
    241e:	22 1c       	adc	r2, r2
    2420:	33 1c       	adc	r3, r3
    2422:	00 1f       	adc	r16, r16
    2424:	00 26       	eor	r0, r16
    2426:	bb 27       	eor	r27, r27
    2428:	77 0f       	add	r23, r23
    242a:	88 1f       	adc	r24, r24
    242c:	99 1f       	adc	r25, r25
    242e:	aa 1f       	adc	r26, r26
    2430:	bb 1f       	adc	r27, r27
    2432:	7b 27       	eor	r23, r27
    2434:	47 0e       	add	r4, r23
    2436:	58 1e       	adc	r5, r24
    2438:	69 1e       	adc	r6, r25
    243a:	7a 1e       	adc	r7, r26
    243c:	00 27       	eor	r16, r16
    243e:	44 0c       	add	r4, r4
    2440:	55 1c       	adc	r5, r5
    2442:	66 1c       	adc	r6, r6
    2444:	77 1c       	adc	r7, r7
    2446:	00 1f       	adc	r16, r16
    2448:	44 0c       	add	r4, r4
    244a:	55 1c       	adc	r5, r5
    244c:	66 1c       	adc	r6, r6
    244e:	77 1c       	adc	r7, r7
    2450:	00 1f       	adc	r16, r16
    2452:	44 0c       	add	r4, r4
    2454:	55 1c       	adc	r5, r5
    2456:	66 1c       	adc	r6, r6
    2458:	77 1c       	adc	r7, r7
    245a:	00 1f       	adc	r16, r16
    245c:	40 26       	eor	r4, r16
    245e:	bb 27       	eor	r27, r27
    2460:	77 0f       	add	r23, r23
    2462:	88 1f       	adc	r24, r24
    2464:	99 1f       	adc	r25, r25
    2466:	aa 1f       	adc	r26, r26
    2468:	bb 1f       	adc	r27, r27
    246a:	7b 27       	eor	r23, r27
    246c:	87 0e       	add	r8, r23
    246e:	98 1e       	adc	r9, r24
    2470:	a9 1e       	adc	r10, r25
    2472:	ba 1e       	adc	r11, r26
    2474:	00 27       	eor	r16, r16
    2476:	b6 94       	lsr	r11
    2478:	a7 94       	ror	r10
    247a:	97 94       	ror	r9
    247c:	87 94       	ror	r8
    247e:	07 95       	ror	r16
    2480:	b6 94       	lsr	r11
    2482:	a7 94       	ror	r10
    2484:	97 94       	ror	r9
    2486:	87 94       	ror	r8
    2488:	07 95       	ror	r16
    248a:	0b 25       	eor	r16, r11
    248c:	ba 2c       	mov	r11, r10
    248e:	a9 2c       	mov	r10, r9
    2490:	98 2c       	mov	r9, r8
    2492:	80 2e       	mov	r8, r16
    2494:	bb 27       	eor	r27, r27
    2496:	77 0f       	add	r23, r23
    2498:	88 1f       	adc	r24, r24
    249a:	99 1f       	adc	r25, r25
    249c:	aa 1f       	adc	r26, r26
    249e:	bb 1f       	adc	r27, r27
    24a0:	7b 27       	eor	r23, r27
    24a2:	c7 0e       	add	r12, r23
    24a4:	d8 1e       	adc	r13, r24
    24a6:	e9 1e       	adc	r14, r25
    24a8:	fa 1e       	adc	r15, r26
    24aa:	00 27       	eor	r16, r16
    24ac:	cc 0c       	add	r12, r12
    24ae:	dd 1c       	adc	r13, r13
    24b0:	ee 1c       	adc	r14, r14
    24b2:	ff 1c       	adc	r15, r15
    24b4:	00 1f       	adc	r16, r16
    24b6:	cc 0c       	add	r12, r12
    24b8:	dd 1c       	adc	r13, r13
    24ba:	ee 1c       	adc	r14, r14
    24bc:	ff 1c       	adc	r15, r15
    24be:	00 1f       	adc	r16, r16
    24c0:	cc 0c       	add	r12, r12
    24c2:	dd 1c       	adc	r13, r13
    24c4:	ee 1c       	adc	r14, r14
    24c6:	ff 1c       	adc	r15, r15
    24c8:	00 1f       	adc	r16, r16
    24ca:	0c 25       	eor	r16, r12
    24cc:	cf 2c       	mov	r12, r15
    24ce:	fe 2c       	mov	r15, r14
    24d0:	ed 2c       	mov	r14, r13
    24d2:	d0 2e       	mov	r13, r16
    24d4:	41 92       	st	Z+, r4
    24d6:	51 92       	st	Z+, r5
    24d8:	61 92       	st	Z+, r6
    24da:	71 92       	st	Z+, r7
    24dc:	c1 92       	st	Z+, r12
    24de:	d1 92       	st	Z+, r13
    24e0:	e1 92       	st	Z+, r14
    24e2:	f1 92       	st	Z+, r15
    24e4:	81 92       	st	Z+, r8
    24e6:	91 92       	st	Z+, r9
    24e8:	a1 92       	st	Z+, r10
    24ea:	b1 92       	st	Z+, r11
    24ec:	01 92       	st	Z+, r0
    24ee:	11 92       	st	Z+, r1
    24f0:	21 92       	st	Z+, r2
    24f2:	31 92       	st	Z+, r3
    24f4:	7a 81       	ldd	r23, Y+2	; 0x02
    24f6:	8b 81       	ldd	r24, Y+3	; 0x03
    24f8:	98 81       	ld	r25, Y
    24fa:	a9 81       	ldd	r26, Y+1	; 0x01
    24fc:	07 0e       	add	r0, r23
    24fe:	18 1e       	adc	r1, r24
    2500:	29 1e       	adc	r2, r25
    2502:	3a 1e       	adc	r3, r26
    2504:	00 27       	eor	r16, r16
    2506:	00 0c       	add	r0, r0
    2508:	11 1c       	adc	r1, r1
    250a:	22 1c       	adc	r2, r2
    250c:	33 1c       	adc	r3, r3
    250e:	00 1f       	adc	r16, r16
    2510:	00 26       	eor	r0, r16
    2512:	bb 27       	eor	r27, r27
    2514:	77 0f       	add	r23, r23
    2516:	88 1f       	adc	r24, r24
    2518:	99 1f       	adc	r25, r25
    251a:	aa 1f       	adc	r26, r26
    251c:	bb 1f       	adc	r27, r27
    251e:	7b 27       	eor	r23, r27
    2520:	47 0e       	add	r4, r23
    2522:	58 1e       	adc	r5, r24
    2524:	69 1e       	adc	r6, r25
    2526:	7a 1e       	adc	r7, r26
    2528:	00 27       	eor	r16, r16
    252a:	44 0c       	add	r4, r4
    252c:	55 1c       	adc	r5, r5
    252e:	66 1c       	adc	r6, r6
    2530:	77 1c       	adc	r7, r7
    2532:	00 1f       	adc	r16, r16
    2534:	44 0c       	add	r4, r4
    2536:	55 1c       	adc	r5, r5
    2538:	66 1c       	adc	r6, r6
    253a:	77 1c       	adc	r7, r7
    253c:	00 1f       	adc	r16, r16
    253e:	44 0c       	add	r4, r4
    2540:	55 1c       	adc	r5, r5
    2542:	66 1c       	adc	r6, r6
    2544:	77 1c       	adc	r7, r7
    2546:	00 1f       	adc	r16, r16
    2548:	40 26       	eor	r4, r16
    254a:	bb 27       	eor	r27, r27
    254c:	77 0f       	add	r23, r23
    254e:	88 1f       	adc	r24, r24
    2550:	99 1f       	adc	r25, r25
    2552:	aa 1f       	adc	r26, r26
    2554:	bb 1f       	adc	r27, r27
    2556:	7b 27       	eor	r23, r27
    2558:	87 0e       	add	r8, r23
    255a:	98 1e       	adc	r9, r24
    255c:	a9 1e       	adc	r10, r25
    255e:	ba 1e       	adc	r11, r26
    2560:	00 27       	eor	r16, r16
    2562:	b6 94       	lsr	r11
    2564:	a7 94       	ror	r10
    2566:	97 94       	ror	r9
    2568:	87 94       	ror	r8
    256a:	07 95       	ror	r16
    256c:	b6 94       	lsr	r11
    256e:	a7 94       	ror	r10
    2570:	97 94       	ror	r9
    2572:	87 94       	ror	r8
    2574:	07 95       	ror	r16
    2576:	0b 25       	eor	r16, r11
    2578:	ba 2c       	mov	r11, r10
    257a:	a9 2c       	mov	r10, r9
    257c:	98 2c       	mov	r9, r8
    257e:	80 2e       	mov	r8, r16
    2580:	bb 27       	eor	r27, r27
    2582:	77 0f       	add	r23, r23
    2584:	88 1f       	adc	r24, r24
    2586:	99 1f       	adc	r25, r25
    2588:	aa 1f       	adc	r26, r26
    258a:	bb 1f       	adc	r27, r27
    258c:	7b 27       	eor	r23, r27
    258e:	c7 0e       	add	r12, r23
    2590:	d8 1e       	adc	r13, r24
    2592:	e9 1e       	adc	r14, r25
    2594:	fa 1e       	adc	r15, r26
    2596:	00 27       	eor	r16, r16
    2598:	cc 0c       	add	r12, r12
    259a:	dd 1c       	adc	r13, r13
    259c:	ee 1c       	adc	r14, r14
    259e:	ff 1c       	adc	r15, r15
    25a0:	00 1f       	adc	r16, r16
    25a2:	cc 0c       	add	r12, r12
    25a4:	dd 1c       	adc	r13, r13
    25a6:	ee 1c       	adc	r14, r14
    25a8:	ff 1c       	adc	r15, r15
    25aa:	00 1f       	adc	r16, r16
    25ac:	cc 0c       	add	r12, r12
    25ae:	dd 1c       	adc	r13, r13
    25b0:	ee 1c       	adc	r14, r14
    25b2:	ff 1c       	adc	r15, r15
    25b4:	00 1f       	adc	r16, r16
    25b6:	0c 25       	eor	r16, r12
    25b8:	cf 2c       	mov	r12, r15
    25ba:	fe 2c       	mov	r15, r14
    25bc:	ed 2c       	mov	r14, r13
    25be:	d0 2e       	mov	r13, r16
    25c0:	41 92       	st	Z+, r4
    25c2:	51 92       	st	Z+, r5
    25c4:	61 92       	st	Z+, r6
    25c6:	71 92       	st	Z+, r7
    25c8:	c1 92       	st	Z+, r12
    25ca:	d1 92       	st	Z+, r13
    25cc:	e1 92       	st	Z+, r14
    25ce:	f1 92       	st	Z+, r15
    25d0:	81 92       	st	Z+, r8
    25d2:	91 92       	st	Z+, r9
    25d4:	a1 92       	st	Z+, r10
    25d6:	b1 92       	st	Z+, r11
    25d8:	01 92       	st	Z+, r0
    25da:	11 92       	st	Z+, r1
    25dc:	21 92       	st	Z+, r2
    25de:	31 92       	st	Z+, r3
    25e0:	7e 81       	ldd	r23, Y+6	; 0x06
    25e2:	8f 81       	ldd	r24, Y+7	; 0x07
    25e4:	9c 81       	ldd	r25, Y+4	; 0x04
    25e6:	ad 81       	ldd	r26, Y+5	; 0x05
    25e8:	bb 27       	eor	r27, r27
    25ea:	77 0f       	add	r23, r23
    25ec:	88 1f       	adc	r24, r24
    25ee:	99 1f       	adc	r25, r25
    25f0:	aa 1f       	adc	r26, r26
    25f2:	bb 1f       	adc	r27, r27
    25f4:	7b 27       	eor	r23, r27
    25f6:	07 0e       	add	r0, r23
    25f8:	18 1e       	adc	r1, r24
    25fa:	29 1e       	adc	r2, r25
    25fc:	3a 1e       	adc	r3, r26
    25fe:	00 27       	eor	r16, r16
    2600:	00 0c       	add	r0, r0
    2602:	11 1c       	adc	r1, r1
    2604:	22 1c       	adc	r2, r2
    2606:	33 1c       	adc	r3, r3
    2608:	00 1f       	adc	r16, r16
    260a:	00 26       	eor	r0, r16
    260c:	bb 27       	eor	r27, r27
    260e:	77 0f       	add	r23, r23
    2610:	88 1f       	adc	r24, r24
    2612:	99 1f       	adc	r25, r25
    2614:	aa 1f       	adc	r26, r26
    2616:	bb 1f       	adc	r27, r27
    2618:	7b 27       	eor	r23, r27
    261a:	47 0e       	add	r4, r23
    261c:	58 1e       	adc	r5, r24
    261e:	69 1e       	adc	r6, r25
    2620:	7a 1e       	adc	r7, r26
    2622:	00 27       	eor	r16, r16
    2624:	44 0c       	add	r4, r4
    2626:	55 1c       	adc	r5, r5
    2628:	66 1c       	adc	r6, r6
    262a:	77 1c       	adc	r7, r7
    262c:	00 1f       	adc	r16, r16
    262e:	44 0c       	add	r4, r4
    2630:	55 1c       	adc	r5, r5
    2632:	66 1c       	adc	r6, r6
    2634:	77 1c       	adc	r7, r7
    2636:	00 1f       	adc	r16, r16
    2638:	44 0c       	add	r4, r4
    263a:	55 1c       	adc	r5, r5
    263c:	66 1c       	adc	r6, r6
    263e:	77 1c       	adc	r7, r7
    2640:	00 1f       	adc	r16, r16
    2642:	40 26       	eor	r4, r16
    2644:	bb 27       	eor	r27, r27
    2646:	77 0f       	add	r23, r23
    2648:	88 1f       	adc	r24, r24
    264a:	99 1f       	adc	r25, r25
    264c:	aa 1f       	adc	r26, r26
    264e:	bb 1f       	adc	r27, r27
    2650:	7b 27       	eor	r23, r27
    2652:	87 0e       	add	r8, r23
    2654:	98 1e       	adc	r9, r24
    2656:	a9 1e       	adc	r10, r25
    2658:	ba 1e       	adc	r11, r26
    265a:	00 27       	eor	r16, r16
    265c:	b6 94       	lsr	r11
    265e:	a7 94       	ror	r10
    2660:	97 94       	ror	r9
    2662:	87 94       	ror	r8
    2664:	07 95       	ror	r16
    2666:	b6 94       	lsr	r11
    2668:	a7 94       	ror	r10
    266a:	97 94       	ror	r9
    266c:	87 94       	ror	r8
    266e:	07 95       	ror	r16
    2670:	0b 25       	eor	r16, r11
    2672:	ba 2c       	mov	r11, r10
    2674:	a9 2c       	mov	r10, r9
    2676:	98 2c       	mov	r9, r8
    2678:	80 2e       	mov	r8, r16
    267a:	bb 27       	eor	r27, r27
    267c:	77 0f       	add	r23, r23
    267e:	88 1f       	adc	r24, r24
    2680:	99 1f       	adc	r25, r25
    2682:	aa 1f       	adc	r26, r26
    2684:	bb 1f       	adc	r27, r27
    2686:	7b 27       	eor	r23, r27
    2688:	c7 0e       	add	r12, r23
    268a:	d8 1e       	adc	r13, r24
    268c:	e9 1e       	adc	r14, r25
    268e:	fa 1e       	adc	r15, r26
    2690:	00 27       	eor	r16, r16
    2692:	cc 0c       	add	r12, r12
    2694:	dd 1c       	adc	r13, r13
    2696:	ee 1c       	adc	r14, r14
    2698:	ff 1c       	adc	r15, r15
    269a:	00 1f       	adc	r16, r16
    269c:	cc 0c       	add	r12, r12
    269e:	dd 1c       	adc	r13, r13
    26a0:	ee 1c       	adc	r14, r14
    26a2:	ff 1c       	adc	r15, r15
    26a4:	00 1f       	adc	r16, r16
    26a6:	cc 0c       	add	r12, r12
    26a8:	dd 1c       	adc	r13, r13
    26aa:	ee 1c       	adc	r14, r14
    26ac:	ff 1c       	adc	r15, r15
    26ae:	00 1f       	adc	r16, r16
    26b0:	0c 25       	eor	r16, r12
    26b2:	cf 2c       	mov	r12, r15
    26b4:	fe 2c       	mov	r15, r14
    26b6:	ed 2c       	mov	r14, r13
    26b8:	d0 2e       	mov	r13, r16
    26ba:	41 92       	st	Z+, r4
    26bc:	51 92       	st	Z+, r5
    26be:	61 92       	st	Z+, r6
    26c0:	71 92       	st	Z+, r7
    26c2:	c1 92       	st	Z+, r12
    26c4:	d1 92       	st	Z+, r13
    26c6:	e1 92       	st	Z+, r14
    26c8:	f1 92       	st	Z+, r15
    26ca:	81 92       	st	Z+, r8
    26cc:	91 92       	st	Z+, r9
    26ce:	a1 92       	st	Z+, r10
    26d0:	b1 92       	st	Z+, r11
    26d2:	01 92       	st	Z+, r0
    26d4:	11 92       	st	Z+, r1
    26d6:	21 92       	st	Z+, r2
    26d8:	31 92       	st	Z+, r3
    26da:	7a 85       	ldd	r23, Y+10	; 0x0a
    26dc:	8b 85       	ldd	r24, Y+11	; 0x0b
    26de:	98 85       	ldd	r25, Y+8	; 0x08
    26e0:	a9 85       	ldd	r26, Y+9	; 0x09
    26e2:	bb 27       	eor	r27, r27
    26e4:	77 0f       	add	r23, r23
    26e6:	88 1f       	adc	r24, r24
    26e8:	99 1f       	adc	r25, r25
    26ea:	aa 1f       	adc	r26, r26
    26ec:	bb 1f       	adc	r27, r27
    26ee:	77 0f       	add	r23, r23
    26f0:	88 1f       	adc	r24, r24
    26f2:	99 1f       	adc	r25, r25
    26f4:	aa 1f       	adc	r26, r26
    26f6:	bb 1f       	adc	r27, r27
    26f8:	7b 27       	eor	r23, r27
    26fa:	07 0e       	add	r0, r23
    26fc:	18 1e       	adc	r1, r24
    26fe:	29 1e       	adc	r2, r25
    2700:	3a 1e       	adc	r3, r26
    2702:	00 27       	eor	r16, r16
    2704:	00 0c       	add	r0, r0
    2706:	11 1c       	adc	r1, r1
    2708:	22 1c       	adc	r2, r2
    270a:	33 1c       	adc	r3, r3
    270c:	00 1f       	adc	r16, r16
    270e:	00 26       	eor	r0, r16
    2710:	bb 27       	eor	r27, r27
    2712:	77 0f       	add	r23, r23
    2714:	88 1f       	adc	r24, r24
    2716:	99 1f       	adc	r25, r25
    2718:	aa 1f       	adc	r26, r26
    271a:	bb 1f       	adc	r27, r27
    271c:	7b 27       	eor	r23, r27
    271e:	47 0e       	add	r4, r23
    2720:	58 1e       	adc	r5, r24
    2722:	69 1e       	adc	r6, r25
    2724:	7a 1e       	adc	r7, r26
    2726:	00 27       	eor	r16, r16
    2728:	44 0c       	add	r4, r4
    272a:	55 1c       	adc	r5, r5
    272c:	66 1c       	adc	r6, r6
    272e:	77 1c       	adc	r7, r7
    2730:	00 1f       	adc	r16, r16
    2732:	44 0c       	add	r4, r4
    2734:	55 1c       	adc	r5, r5
    2736:	66 1c       	adc	r6, r6
    2738:	77 1c       	adc	r7, r7
    273a:	00 1f       	adc	r16, r16
    273c:	44 0c       	add	r4, r4
    273e:	55 1c       	adc	r5, r5
    2740:	66 1c       	adc	r6, r6
    2742:	77 1c       	adc	r7, r7
    2744:	00 1f       	adc	r16, r16
    2746:	40 26       	eor	r4, r16
    2748:	bb 27       	eor	r27, r27
    274a:	77 0f       	add	r23, r23
    274c:	88 1f       	adc	r24, r24
    274e:	99 1f       	adc	r25, r25
    2750:	aa 1f       	adc	r26, r26
    2752:	bb 1f       	adc	r27, r27
    2754:	7b 27       	eor	r23, r27
    2756:	87 0e       	add	r8, r23
    2758:	98 1e       	adc	r9, r24
    275a:	a9 1e       	adc	r10, r25
    275c:	ba 1e       	adc	r11, r26
    275e:	00 27       	eor	r16, r16
    2760:	b6 94       	lsr	r11
    2762:	a7 94       	ror	r10
    2764:	97 94       	ror	r9
    2766:	87 94       	ror	r8
    2768:	07 95       	ror	r16
    276a:	b6 94       	lsr	r11
    276c:	a7 94       	ror	r10
    276e:	97 94       	ror	r9
    2770:	87 94       	ror	r8
    2772:	07 95       	ror	r16
    2774:	0b 25       	eor	r16, r11
    2776:	ba 2c       	mov	r11, r10
    2778:	a9 2c       	mov	r10, r9
    277a:	98 2c       	mov	r9, r8
    277c:	80 2e       	mov	r8, r16
    277e:	bb 27       	eor	r27, r27
    2780:	77 0f       	add	r23, r23
    2782:	88 1f       	adc	r24, r24
    2784:	99 1f       	adc	r25, r25
    2786:	aa 1f       	adc	r26, r26
    2788:	bb 1f       	adc	r27, r27
    278a:	7b 27       	eor	r23, r27
    278c:	c7 0e       	add	r12, r23
    278e:	d8 1e       	adc	r13, r24
    2790:	e9 1e       	adc	r14, r25
    2792:	fa 1e       	adc	r15, r26
    2794:	00 27       	eor	r16, r16
    2796:	cc 0c       	add	r12, r12
    2798:	dd 1c       	adc	r13, r13
    279a:	ee 1c       	adc	r14, r14
    279c:	ff 1c       	adc	r15, r15
    279e:	00 1f       	adc	r16, r16
    27a0:	cc 0c       	add	r12, r12
    27a2:	dd 1c       	adc	r13, r13
    27a4:	ee 1c       	adc	r14, r14
    27a6:	ff 1c       	adc	r15, r15
    27a8:	00 1f       	adc	r16, r16
    27aa:	cc 0c       	add	r12, r12
    27ac:	dd 1c       	adc	r13, r13
    27ae:	ee 1c       	adc	r14, r14
    27b0:	ff 1c       	adc	r15, r15
    27b2:	00 1f       	adc	r16, r16
    27b4:	0c 25       	eor	r16, r12
    27b6:	cf 2c       	mov	r12, r15
    27b8:	fe 2c       	mov	r15, r14
    27ba:	ed 2c       	mov	r14, r13
    27bc:	d0 2e       	mov	r13, r16
    27be:	41 92       	st	Z+, r4
    27c0:	51 92       	st	Z+, r5
    27c2:	61 92       	st	Z+, r6
    27c4:	71 92       	st	Z+, r7
    27c6:	c1 92       	st	Z+, r12
    27c8:	d1 92       	st	Z+, r13
    27ca:	e1 92       	st	Z+, r14
    27cc:	f1 92       	st	Z+, r15
    27ce:	81 92       	st	Z+, r8
    27d0:	91 92       	st	Z+, r9
    27d2:	a1 92       	st	Z+, r10
    27d4:	b1 92       	st	Z+, r11
    27d6:	01 92       	st	Z+, r0
    27d8:	11 92       	st	Z+, r1
    27da:	21 92       	st	Z+, r2
    27dc:	31 92       	st	Z+, r3
    27de:	7e 85       	ldd	r23, Y+14	; 0x0e
    27e0:	8f 85       	ldd	r24, Y+15	; 0x0f
    27e2:	9c 85       	ldd	r25, Y+12	; 0x0c
    27e4:	ad 85       	ldd	r26, Y+13	; 0x0d
    27e6:	bb 27       	eor	r27, r27
    27e8:	77 0f       	add	r23, r23
    27ea:	88 1f       	adc	r24, r24
    27ec:	99 1f       	adc	r25, r25
    27ee:	aa 1f       	adc	r26, r26
    27f0:	bb 1f       	adc	r27, r27
    27f2:	77 0f       	add	r23, r23
    27f4:	88 1f       	adc	r24, r24
    27f6:	99 1f       	adc	r25, r25
    27f8:	aa 1f       	adc	r26, r26
    27fa:	bb 1f       	adc	r27, r27
    27fc:	77 0f       	add	r23, r23
    27fe:	88 1f       	adc	r24, r24
    2800:	99 1f       	adc	r25, r25
    2802:	aa 1f       	adc	r26, r26
    2804:	bb 1f       	adc	r27, r27
    2806:	7b 27       	eor	r23, r27
    2808:	07 0e       	add	r0, r23
    280a:	18 1e       	adc	r1, r24
    280c:	29 1e       	adc	r2, r25
    280e:	3a 1e       	adc	r3, r26
    2810:	00 27       	eor	r16, r16
    2812:	00 0c       	add	r0, r0
    2814:	11 1c       	adc	r1, r1
    2816:	22 1c       	adc	r2, r2
    2818:	33 1c       	adc	r3, r3
    281a:	00 1f       	adc	r16, r16
    281c:	00 26       	eor	r0, r16
    281e:	bb 27       	eor	r27, r27
    2820:	77 0f       	add	r23, r23
    2822:	88 1f       	adc	r24, r24
    2824:	99 1f       	adc	r25, r25
    2826:	aa 1f       	adc	r26, r26
    2828:	bb 1f       	adc	r27, r27
    282a:	7b 27       	eor	r23, r27
    282c:	47 0e       	add	r4, r23
    282e:	58 1e       	adc	r5, r24
    2830:	69 1e       	adc	r6, r25
    2832:	7a 1e       	adc	r7, r26
    2834:	00 27       	eor	r16, r16
    2836:	44 0c       	add	r4, r4
    2838:	55 1c       	adc	r5, r5
    283a:	66 1c       	adc	r6, r6
    283c:	77 1c       	adc	r7, r7
    283e:	00 1f       	adc	r16, r16
    2840:	44 0c       	add	r4, r4
    2842:	55 1c       	adc	r5, r5
    2844:	66 1c       	adc	r6, r6
    2846:	77 1c       	adc	r7, r7
    2848:	00 1f       	adc	r16, r16
    284a:	44 0c       	add	r4, r4
    284c:	55 1c       	adc	r5, r5
    284e:	66 1c       	adc	r6, r6
    2850:	77 1c       	adc	r7, r7
    2852:	00 1f       	adc	r16, r16
    2854:	40 26       	eor	r4, r16
    2856:	bb 27       	eor	r27, r27
    2858:	77 0f       	add	r23, r23
    285a:	88 1f       	adc	r24, r24
    285c:	99 1f       	adc	r25, r25
    285e:	aa 1f       	adc	r26, r26
    2860:	bb 1f       	adc	r27, r27
    2862:	7b 27       	eor	r23, r27
    2864:	87 0e       	add	r8, r23
    2866:	98 1e       	adc	r9, r24
    2868:	a9 1e       	adc	r10, r25
    286a:	ba 1e       	adc	r11, r26
    286c:	00 27       	eor	r16, r16
    286e:	b6 94       	lsr	r11
    2870:	a7 94       	ror	r10
    2872:	97 94       	ror	r9
    2874:	87 94       	ror	r8
    2876:	07 95       	ror	r16
    2878:	b6 94       	lsr	r11
    287a:	a7 94       	ror	r10
    287c:	97 94       	ror	r9
    287e:	87 94       	ror	r8
    2880:	07 95       	ror	r16
    2882:	0b 25       	eor	r16, r11
    2884:	ba 2c       	mov	r11, r10
    2886:	a9 2c       	mov	r10, r9
    2888:	98 2c       	mov	r9, r8
    288a:	80 2e       	mov	r8, r16
    288c:	bb 27       	eor	r27, r27
    288e:	77 0f       	add	r23, r23
    2890:	88 1f       	adc	r24, r24
    2892:	99 1f       	adc	r25, r25
    2894:	aa 1f       	adc	r26, r26
    2896:	bb 1f       	adc	r27, r27
    2898:	7b 27       	eor	r23, r27
    289a:	c7 0e       	add	r12, r23
    289c:	d8 1e       	adc	r13, r24
    289e:	e9 1e       	adc	r14, r25
    28a0:	fa 1e       	adc	r15, r26
    28a2:	00 27       	eor	r16, r16
    28a4:	cc 0c       	add	r12, r12
    28a6:	dd 1c       	adc	r13, r13
    28a8:	ee 1c       	adc	r14, r14
    28aa:	ff 1c       	adc	r15, r15
    28ac:	00 1f       	adc	r16, r16
    28ae:	cc 0c       	add	r12, r12
    28b0:	dd 1c       	adc	r13, r13
    28b2:	ee 1c       	adc	r14, r14
    28b4:	ff 1c       	adc	r15, r15
    28b6:	00 1f       	adc	r16, r16
    28b8:	cc 0c       	add	r12, r12
    28ba:	dd 1c       	adc	r13, r13
    28bc:	ee 1c       	adc	r14, r14
    28be:	ff 1c       	adc	r15, r15
    28c0:	00 1f       	adc	r16, r16
    28c2:	0c 25       	eor	r16, r12
    28c4:	cf 2c       	mov	r12, r15
    28c6:	fe 2c       	mov	r15, r14
    28c8:	ed 2c       	mov	r14, r13
    28ca:	d0 2e       	mov	r13, r16
    28cc:	41 92       	st	Z+, r4
    28ce:	51 92       	st	Z+, r5
    28d0:	61 92       	st	Z+, r6
    28d2:	71 92       	st	Z+, r7
    28d4:	c1 92       	st	Z+, r12
    28d6:	d1 92       	st	Z+, r13
    28d8:	e1 92       	st	Z+, r14
    28da:	f1 92       	st	Z+, r15
    28dc:	81 92       	st	Z+, r8
    28de:	91 92       	st	Z+, r9
    28e0:	a1 92       	st	Z+, r10
    28e2:	b1 92       	st	Z+, r11
    28e4:	01 92       	st	Z+, r0
    28e6:	11 92       	st	Z+, r1
    28e8:	21 92       	st	Z+, r2
    28ea:	31 92       	st	Z+, r3
    28ec:	7a 81       	ldd	r23, Y+2	; 0x02
    28ee:	8b 81       	ldd	r24, Y+3	; 0x03
    28f0:	98 81       	ld	r25, Y
    28f2:	a9 81       	ldd	r26, Y+1	; 0x01
    28f4:	bb 27       	eor	r27, r27
    28f6:	77 0f       	add	r23, r23
    28f8:	88 1f       	adc	r24, r24
    28fa:	99 1f       	adc	r25, r25
    28fc:	aa 1f       	adc	r26, r26
    28fe:	bb 1f       	adc	r27, r27
    2900:	77 0f       	add	r23, r23
    2902:	88 1f       	adc	r24, r24
    2904:	99 1f       	adc	r25, r25
    2906:	aa 1f       	adc	r26, r26
    2908:	bb 1f       	adc	r27, r27
    290a:	77 0f       	add	r23, r23
    290c:	88 1f       	adc	r24, r24
    290e:	99 1f       	adc	r25, r25
    2910:	aa 1f       	adc	r26, r26
    2912:	bb 1f       	adc	r27, r27
    2914:	77 0f       	add	r23, r23
    2916:	88 1f       	adc	r24, r24
    2918:	99 1f       	adc	r25, r25
    291a:	aa 1f       	adc	r26, r26
    291c:	bb 1f       	adc	r27, r27
    291e:	7b 27       	eor	r23, r27
    2920:	07 0e       	add	r0, r23
    2922:	18 1e       	adc	r1, r24
    2924:	29 1e       	adc	r2, r25
    2926:	3a 1e       	adc	r3, r26
    2928:	00 27       	eor	r16, r16
    292a:	00 0c       	add	r0, r0
    292c:	11 1c       	adc	r1, r1
    292e:	22 1c       	adc	r2, r2
    2930:	33 1c       	adc	r3, r3
    2932:	00 1f       	adc	r16, r16
    2934:	00 26       	eor	r0, r16
    2936:	bb 27       	eor	r27, r27
    2938:	77 0f       	add	r23, r23
    293a:	88 1f       	adc	r24, r24
    293c:	99 1f       	adc	r25, r25
    293e:	aa 1f       	adc	r26, r26
    2940:	bb 1f       	adc	r27, r27
    2942:	7b 27       	eor	r23, r27
    2944:	47 0e       	add	r4, r23
    2946:	58 1e       	adc	r5, r24
    2948:	69 1e       	adc	r6, r25
    294a:	7a 1e       	adc	r7, r26
    294c:	00 27       	eor	r16, r16
    294e:	44 0c       	add	r4, r4
    2950:	55 1c       	adc	r5, r5
    2952:	66 1c       	adc	r6, r6
    2954:	77 1c       	adc	r7, r7
    2956:	00 1f       	adc	r16, r16
    2958:	44 0c       	add	r4, r4
    295a:	55 1c       	adc	r5, r5
    295c:	66 1c       	adc	r6, r6
    295e:	77 1c       	adc	r7, r7
    2960:	00 1f       	adc	r16, r16
    2962:	44 0c       	add	r4, r4
    2964:	55 1c       	adc	r5, r5
    2966:	66 1c       	adc	r6, r6
    2968:	77 1c       	adc	r7, r7
    296a:	00 1f       	adc	r16, r16
    296c:	40 26       	eor	r4, r16
    296e:	bb 27       	eor	r27, r27
    2970:	77 0f       	add	r23, r23
    2972:	88 1f       	adc	r24, r24
    2974:	99 1f       	adc	r25, r25
    2976:	aa 1f       	adc	r26, r26
    2978:	bb 1f       	adc	r27, r27
    297a:	7b 27       	eor	r23, r27
    297c:	87 0e       	add	r8, r23
    297e:	98 1e       	adc	r9, r24
    2980:	a9 1e       	adc	r10, r25
    2982:	ba 1e       	adc	r11, r26
    2984:	00 27       	eor	r16, r16
    2986:	b6 94       	lsr	r11
    2988:	a7 94       	ror	r10
    298a:	97 94       	ror	r9
    298c:	87 94       	ror	r8
    298e:	07 95       	ror	r16
    2990:	b6 94       	lsr	r11
    2992:	a7 94       	ror	r10
    2994:	97 94       	ror	r9
    2996:	87 94       	ror	r8
    2998:	07 95       	ror	r16
    299a:	0b 25       	eor	r16, r11
    299c:	ba 2c       	mov	r11, r10
    299e:	a9 2c       	mov	r10, r9
    29a0:	98 2c       	mov	r9, r8
    29a2:	80 2e       	mov	r8, r16
    29a4:	bb 27       	eor	r27, r27
    29a6:	77 0f       	add	r23, r23
    29a8:	88 1f       	adc	r24, r24
    29aa:	99 1f       	adc	r25, r25
    29ac:	aa 1f       	adc	r26, r26
    29ae:	bb 1f       	adc	r27, r27
    29b0:	7b 27       	eor	r23, r27
    29b2:	c7 0e       	add	r12, r23
    29b4:	d8 1e       	adc	r13, r24
    29b6:	e9 1e       	adc	r14, r25
    29b8:	fa 1e       	adc	r15, r26
    29ba:	00 27       	eor	r16, r16
    29bc:	cc 0c       	add	r12, r12
    29be:	dd 1c       	adc	r13, r13
    29c0:	ee 1c       	adc	r14, r14
    29c2:	ff 1c       	adc	r15, r15
    29c4:	00 1f       	adc	r16, r16
    29c6:	cc 0c       	add	r12, r12
    29c8:	dd 1c       	adc	r13, r13
    29ca:	ee 1c       	adc	r14, r14
    29cc:	ff 1c       	adc	r15, r15
    29ce:	00 1f       	adc	r16, r16
    29d0:	cc 0c       	add	r12, r12
    29d2:	dd 1c       	adc	r13, r13
    29d4:	ee 1c       	adc	r14, r14
    29d6:	ff 1c       	adc	r15, r15
    29d8:	00 1f       	adc	r16, r16
    29da:	0c 25       	eor	r16, r12
    29dc:	cf 2c       	mov	r12, r15
    29de:	fe 2c       	mov	r15, r14
    29e0:	ed 2c       	mov	r14, r13
    29e2:	d0 2e       	mov	r13, r16
    29e4:	41 92       	st	Z+, r4
    29e6:	51 92       	st	Z+, r5
    29e8:	61 92       	st	Z+, r6
    29ea:	71 92       	st	Z+, r7
    29ec:	c1 92       	st	Z+, r12
    29ee:	d1 92       	st	Z+, r13
    29f0:	e1 92       	st	Z+, r14
    29f2:	f1 92       	st	Z+, r15
    29f4:	81 92       	st	Z+, r8
    29f6:	91 92       	st	Z+, r9
    29f8:	a1 92       	st	Z+, r10
    29fa:	b1 92       	st	Z+, r11
    29fc:	01 92       	st	Z+, r0
    29fe:	11 92       	st	Z+, r1
    2a00:	21 92       	st	Z+, r2
    2a02:	31 92       	st	Z+, r3
    2a04:	7e 81       	ldd	r23, Y+6	; 0x06
    2a06:	8f 81       	ldd	r24, Y+7	; 0x07
    2a08:	9c 81       	ldd	r25, Y+4	; 0x04
    2a0a:	ad 81       	ldd	r26, Y+5	; 0x05
    2a0c:	bb 27       	eor	r27, r27
    2a0e:	a6 95       	lsr	r26
    2a10:	97 95       	ror	r25
    2a12:	87 95       	ror	r24
    2a14:	77 95       	ror	r23
    2a16:	b7 95       	ror	r27
    2a18:	a6 95       	lsr	r26
    2a1a:	97 95       	ror	r25
    2a1c:	87 95       	ror	r24
    2a1e:	77 95       	ror	r23
    2a20:	b7 95       	ror	r27
    2a22:	a6 95       	lsr	r26
    2a24:	97 95       	ror	r25
    2a26:	87 95       	ror	r24
    2a28:	77 95       	ror	r23
    2a2a:	b7 95       	ror	r27
    2a2c:	ba 27       	eor	r27, r26
    2a2e:	a9 2f       	mov	r26, r25
    2a30:	98 2f       	mov	r25, r24
    2a32:	87 2f       	mov	r24, r23
    2a34:	7b 2f       	mov	r23, r27
    2a36:	07 0e       	add	r0, r23
    2a38:	18 1e       	adc	r1, r24
    2a3a:	29 1e       	adc	r2, r25
    2a3c:	3a 1e       	adc	r3, r26
    2a3e:	00 27       	eor	r16, r16
    2a40:	00 0c       	add	r0, r0
    2a42:	11 1c       	adc	r1, r1
    2a44:	22 1c       	adc	r2, r2
    2a46:	33 1c       	adc	r3, r3
    2a48:	00 1f       	adc	r16, r16
    2a4a:	00 26       	eor	r0, r16
    2a4c:	bb 27       	eor	r27, r27
    2a4e:	77 0f       	add	r23, r23
    2a50:	88 1f       	adc	r24, r24
    2a52:	99 1f       	adc	r25, r25
    2a54:	aa 1f       	adc	r26, r26
    2a56:	bb 1f       	adc	r27, r27
    2a58:	7b 27       	eor	r23, r27
    2a5a:	47 0e       	add	r4, r23
    2a5c:	58 1e       	adc	r5, r24
    2a5e:	69 1e       	adc	r6, r25
    2a60:	7a 1e       	adc	r7, r26
    2a62:	00 27       	eor	r16, r16
    2a64:	44 0c       	add	r4, r4
    2a66:	55 1c       	adc	r5, r5
    2a68:	66 1c       	adc	r6, r6
    2a6a:	77 1c       	adc	r7, r7
    2a6c:	00 1f       	adc	r16, r16
    2a6e:	44 0c       	add	r4, r4
    2a70:	55 1c       	adc	r5, r5
    2a72:	66 1c       	adc	r6, r6
    2a74:	77 1c       	adc	r7, r7
    2a76:	00 1f       	adc	r16, r16
    2a78:	44 0c       	add	r4, r4
    2a7a:	55 1c       	adc	r5, r5
    2a7c:	66 1c       	adc	r6, r6
    2a7e:	77 1c       	adc	r7, r7
    2a80:	00 1f       	adc	r16, r16
    2a82:	40 26       	eor	r4, r16
    2a84:	bb 27       	eor	r27, r27
    2a86:	77 0f       	add	r23, r23
    2a88:	88 1f       	adc	r24, r24
    2a8a:	99 1f       	adc	r25, r25
    2a8c:	aa 1f       	adc	r26, r26
    2a8e:	bb 1f       	adc	r27, r27
    2a90:	7b 27       	eor	r23, r27
    2a92:	87 0e       	add	r8, r23
    2a94:	98 1e       	adc	r9, r24
    2a96:	a9 1e       	adc	r10, r25
    2a98:	ba 1e       	adc	r11, r26
    2a9a:	00 27       	eor	r16, r16
    2a9c:	b6 94       	lsr	r11
    2a9e:	a7 94       	ror	r10
    2aa0:	97 94       	ror	r9
    2aa2:	87 94       	ror	r8
    2aa4:	07 95       	ror	r16
    2aa6:	b6 94       	lsr	r11
    2aa8:	a7 94       	ror	r10
    2aaa:	97 94       	ror	r9
    2aac:	87 94       	ror	r8
    2aae:	07 95       	ror	r16
    2ab0:	0b 25       	eor	r16, r11
    2ab2:	ba 2c       	mov	r11, r10
    2ab4:	a9 2c       	mov	r10, r9
    2ab6:	98 2c       	mov	r9, r8
    2ab8:	80 2e       	mov	r8, r16
    2aba:	bb 27       	eor	r27, r27
    2abc:	77 0f       	add	r23, r23
    2abe:	88 1f       	adc	r24, r24
    2ac0:	99 1f       	adc	r25, r25
    2ac2:	aa 1f       	adc	r26, r26
    2ac4:	bb 1f       	adc	r27, r27
    2ac6:	7b 27       	eor	r23, r27
    2ac8:	c7 0e       	add	r12, r23
    2aca:	d8 1e       	adc	r13, r24
    2acc:	e9 1e       	adc	r14, r25
    2ace:	fa 1e       	adc	r15, r26
    2ad0:	00 27       	eor	r16, r16
    2ad2:	cc 0c       	add	r12, r12
    2ad4:	dd 1c       	adc	r13, r13
    2ad6:	ee 1c       	adc	r14, r14
    2ad8:	ff 1c       	adc	r15, r15
    2ada:	00 1f       	adc	r16, r16
    2adc:	cc 0c       	add	r12, r12
    2ade:	dd 1c       	adc	r13, r13
    2ae0:	ee 1c       	adc	r14, r14
    2ae2:	ff 1c       	adc	r15, r15
    2ae4:	00 1f       	adc	r16, r16
    2ae6:	cc 0c       	add	r12, r12
    2ae8:	dd 1c       	adc	r13, r13
    2aea:	ee 1c       	adc	r14, r14
    2aec:	ff 1c       	adc	r15, r15
    2aee:	00 1f       	adc	r16, r16
    2af0:	0c 25       	eor	r16, r12
    2af2:	cf 2c       	mov	r12, r15
    2af4:	fe 2c       	mov	r15, r14
    2af6:	ed 2c       	mov	r14, r13
    2af8:	d0 2e       	mov	r13, r16
    2afa:	41 92       	st	Z+, r4
    2afc:	51 92       	st	Z+, r5
    2afe:	61 92       	st	Z+, r6
    2b00:	71 92       	st	Z+, r7
    2b02:	c1 92       	st	Z+, r12
    2b04:	d1 92       	st	Z+, r13
    2b06:	e1 92       	st	Z+, r14
    2b08:	f1 92       	st	Z+, r15
    2b0a:	81 92       	st	Z+, r8
    2b0c:	91 92       	st	Z+, r9
    2b0e:	a1 92       	st	Z+, r10
    2b10:	b1 92       	st	Z+, r11
    2b12:	01 92       	st	Z+, r0
    2b14:	11 92       	st	Z+, r1
    2b16:	21 92       	st	Z+, r2
    2b18:	31 92       	st	Z+, r3
    2b1a:	7a 85       	ldd	r23, Y+10	; 0x0a
    2b1c:	8b 85       	ldd	r24, Y+11	; 0x0b
    2b1e:	98 85       	ldd	r25, Y+8	; 0x08
    2b20:	a9 85       	ldd	r26, Y+9	; 0x09
    2b22:	bb 27       	eor	r27, r27
    2b24:	a6 95       	lsr	r26
    2b26:	97 95       	ror	r25
    2b28:	87 95       	ror	r24
    2b2a:	77 95       	ror	r23
    2b2c:	b7 95       	ror	r27
    2b2e:	a6 95       	lsr	r26
    2b30:	97 95       	ror	r25
    2b32:	87 95       	ror	r24
    2b34:	77 95       	ror	r23
    2b36:	b7 95       	ror	r27
    2b38:	ba 27       	eor	r27, r26
    2b3a:	a9 2f       	mov	r26, r25
    2b3c:	98 2f       	mov	r25, r24
    2b3e:	87 2f       	mov	r24, r23
    2b40:	7b 2f       	mov	r23, r27
    2b42:	07 0e       	add	r0, r23
    2b44:	18 1e       	adc	r1, r24
    2b46:	29 1e       	adc	r2, r25
    2b48:	3a 1e       	adc	r3, r26
    2b4a:	00 27       	eor	r16, r16
    2b4c:	00 0c       	add	r0, r0
    2b4e:	11 1c       	adc	r1, r1
    2b50:	22 1c       	adc	r2, r2
    2b52:	33 1c       	adc	r3, r3
    2b54:	00 1f       	adc	r16, r16
    2b56:	00 26       	eor	r0, r16
    2b58:	bb 27       	eor	r27, r27
    2b5a:	77 0f       	add	r23, r23
    2b5c:	88 1f       	adc	r24, r24
    2b5e:	99 1f       	adc	r25, r25
    2b60:	aa 1f       	adc	r26, r26
    2b62:	bb 1f       	adc	r27, r27
    2b64:	7b 27       	eor	r23, r27
    2b66:	47 0e       	add	r4, r23
    2b68:	58 1e       	adc	r5, r24
    2b6a:	69 1e       	adc	r6, r25
    2b6c:	7a 1e       	adc	r7, r26
    2b6e:	00 27       	eor	r16, r16
    2b70:	44 0c       	add	r4, r4
    2b72:	55 1c       	adc	r5, r5
    2b74:	66 1c       	adc	r6, r6
    2b76:	77 1c       	adc	r7, r7
    2b78:	00 1f       	adc	r16, r16
    2b7a:	44 0c       	add	r4, r4
    2b7c:	55 1c       	adc	r5, r5
    2b7e:	66 1c       	adc	r6, r6
    2b80:	77 1c       	adc	r7, r7
    2b82:	00 1f       	adc	r16, r16
    2b84:	44 0c       	add	r4, r4
    2b86:	55 1c       	adc	r5, r5
    2b88:	66 1c       	adc	r6, r6
    2b8a:	77 1c       	adc	r7, r7
    2b8c:	00 1f       	adc	r16, r16
    2b8e:	40 26       	eor	r4, r16
    2b90:	bb 27       	eor	r27, r27
    2b92:	77 0f       	add	r23, r23
    2b94:	88 1f       	adc	r24, r24
    2b96:	99 1f       	adc	r25, r25
    2b98:	aa 1f       	adc	r26, r26
    2b9a:	bb 1f       	adc	r27, r27
    2b9c:	7b 27       	eor	r23, r27
    2b9e:	87 0e       	add	r8, r23
    2ba0:	98 1e       	adc	r9, r24
    2ba2:	a9 1e       	adc	r10, r25
    2ba4:	ba 1e       	adc	r11, r26
    2ba6:	00 27       	eor	r16, r16
    2ba8:	b6 94       	lsr	r11
    2baa:	a7 94       	ror	r10
    2bac:	97 94       	ror	r9
    2bae:	87 94       	ror	r8
    2bb0:	07 95       	ror	r16
    2bb2:	b6 94       	lsr	r11
    2bb4:	a7 94       	ror	r10
    2bb6:	97 94       	ror	r9
    2bb8:	87 94       	ror	r8
    2bba:	07 95       	ror	r16
    2bbc:	0b 25       	eor	r16, r11
    2bbe:	ba 2c       	mov	r11, r10
    2bc0:	a9 2c       	mov	r10, r9
    2bc2:	98 2c       	mov	r9, r8
    2bc4:	80 2e       	mov	r8, r16
    2bc6:	bb 27       	eor	r27, r27
    2bc8:	77 0f       	add	r23, r23
    2bca:	88 1f       	adc	r24, r24
    2bcc:	99 1f       	adc	r25, r25
    2bce:	aa 1f       	adc	r26, r26
    2bd0:	bb 1f       	adc	r27, r27
    2bd2:	7b 27       	eor	r23, r27
    2bd4:	c7 0e       	add	r12, r23
    2bd6:	d8 1e       	adc	r13, r24
    2bd8:	e9 1e       	adc	r14, r25
    2bda:	fa 1e       	adc	r15, r26
    2bdc:	00 27       	eor	r16, r16
    2bde:	cc 0c       	add	r12, r12
    2be0:	dd 1c       	adc	r13, r13
    2be2:	ee 1c       	adc	r14, r14
    2be4:	ff 1c       	adc	r15, r15
    2be6:	00 1f       	adc	r16, r16
    2be8:	cc 0c       	add	r12, r12
    2bea:	dd 1c       	adc	r13, r13
    2bec:	ee 1c       	adc	r14, r14
    2bee:	ff 1c       	adc	r15, r15
    2bf0:	00 1f       	adc	r16, r16
    2bf2:	cc 0c       	add	r12, r12
    2bf4:	dd 1c       	adc	r13, r13
    2bf6:	ee 1c       	adc	r14, r14
    2bf8:	ff 1c       	adc	r15, r15
    2bfa:	00 1f       	adc	r16, r16
    2bfc:	0c 25       	eor	r16, r12
    2bfe:	cf 2c       	mov	r12, r15
    2c00:	fe 2c       	mov	r15, r14
    2c02:	ed 2c       	mov	r14, r13
    2c04:	d0 2e       	mov	r13, r16
    2c06:	41 92       	st	Z+, r4
    2c08:	51 92       	st	Z+, r5
    2c0a:	61 92       	st	Z+, r6
    2c0c:	71 92       	st	Z+, r7
    2c0e:	c1 92       	st	Z+, r12
    2c10:	d1 92       	st	Z+, r13
    2c12:	e1 92       	st	Z+, r14
    2c14:	f1 92       	st	Z+, r15
    2c16:	81 92       	st	Z+, r8
    2c18:	91 92       	st	Z+, r9
    2c1a:	a1 92       	st	Z+, r10
    2c1c:	b1 92       	st	Z+, r11
    2c1e:	01 92       	st	Z+, r0
    2c20:	11 92       	st	Z+, r1
    2c22:	21 92       	st	Z+, r2
    2c24:	31 92       	st	Z+, r3
    2c26:	7e 85       	ldd	r23, Y+14	; 0x0e
    2c28:	8f 85       	ldd	r24, Y+15	; 0x0f
    2c2a:	9c 85       	ldd	r25, Y+12	; 0x0c
    2c2c:	ad 85       	ldd	r26, Y+13	; 0x0d
    2c2e:	bb 27       	eor	r27, r27
    2c30:	a6 95       	lsr	r26
    2c32:	97 95       	ror	r25
    2c34:	87 95       	ror	r24
    2c36:	77 95       	ror	r23
    2c38:	b7 95       	ror	r27
    2c3a:	ba 27       	eor	r27, r26
    2c3c:	a9 2f       	mov	r26, r25
    2c3e:	98 2f       	mov	r25, r24
    2c40:	87 2f       	mov	r24, r23
    2c42:	7b 2f       	mov	r23, r27
    2c44:	07 0e       	add	r0, r23
    2c46:	18 1e       	adc	r1, r24
    2c48:	29 1e       	adc	r2, r25
    2c4a:	3a 1e       	adc	r3, r26
    2c4c:	00 27       	eor	r16, r16
    2c4e:	00 0c       	add	r0, r0
    2c50:	11 1c       	adc	r1, r1
    2c52:	22 1c       	adc	r2, r2
    2c54:	33 1c       	adc	r3, r3
    2c56:	00 1f       	adc	r16, r16
    2c58:	00 26       	eor	r0, r16
    2c5a:	bb 27       	eor	r27, r27
    2c5c:	77 0f       	add	r23, r23
    2c5e:	88 1f       	adc	r24, r24
    2c60:	99 1f       	adc	r25, r25
    2c62:	aa 1f       	adc	r26, r26
    2c64:	bb 1f       	adc	r27, r27
    2c66:	7b 27       	eor	r23, r27
    2c68:	47 0e       	add	r4, r23
    2c6a:	58 1e       	adc	r5, r24
    2c6c:	69 1e       	adc	r6, r25
    2c6e:	7a 1e       	adc	r7, r26
    2c70:	00 27       	eor	r16, r16
    2c72:	44 0c       	add	r4, r4
    2c74:	55 1c       	adc	r5, r5
    2c76:	66 1c       	adc	r6, r6
    2c78:	77 1c       	adc	r7, r7
    2c7a:	00 1f       	adc	r16, r16
    2c7c:	44 0c       	add	r4, r4
    2c7e:	55 1c       	adc	r5, r5
    2c80:	66 1c       	adc	r6, r6
    2c82:	77 1c       	adc	r7, r7
    2c84:	00 1f       	adc	r16, r16
    2c86:	44 0c       	add	r4, r4
    2c88:	55 1c       	adc	r5, r5
    2c8a:	66 1c       	adc	r6, r6
    2c8c:	77 1c       	adc	r7, r7
    2c8e:	00 1f       	adc	r16, r16
    2c90:	40 26       	eor	r4, r16
    2c92:	bb 27       	eor	r27, r27
    2c94:	77 0f       	add	r23, r23
    2c96:	88 1f       	adc	r24, r24
    2c98:	99 1f       	adc	r25, r25
    2c9a:	aa 1f       	adc	r26, r26
    2c9c:	bb 1f       	adc	r27, r27
    2c9e:	7b 27       	eor	r23, r27
    2ca0:	87 0e       	add	r8, r23
    2ca2:	98 1e       	adc	r9, r24
    2ca4:	a9 1e       	adc	r10, r25
    2ca6:	ba 1e       	adc	r11, r26
    2ca8:	00 27       	eor	r16, r16
    2caa:	b6 94       	lsr	r11
    2cac:	a7 94       	ror	r10
    2cae:	97 94       	ror	r9
    2cb0:	87 94       	ror	r8
    2cb2:	07 95       	ror	r16
    2cb4:	b6 94       	lsr	r11
    2cb6:	a7 94       	ror	r10
    2cb8:	97 94       	ror	r9
    2cba:	87 94       	ror	r8
    2cbc:	07 95       	ror	r16
    2cbe:	0b 25       	eor	r16, r11
    2cc0:	ba 2c       	mov	r11, r10
    2cc2:	a9 2c       	mov	r10, r9
    2cc4:	98 2c       	mov	r9, r8
    2cc6:	80 2e       	mov	r8, r16
    2cc8:	bb 27       	eor	r27, r27
    2cca:	77 0f       	add	r23, r23
    2ccc:	88 1f       	adc	r24, r24
    2cce:	99 1f       	adc	r25, r25
    2cd0:	aa 1f       	adc	r26, r26
    2cd2:	bb 1f       	adc	r27, r27
    2cd4:	7b 27       	eor	r23, r27
    2cd6:	c7 0e       	add	r12, r23
    2cd8:	d8 1e       	adc	r13, r24
    2cda:	e9 1e       	adc	r14, r25
    2cdc:	fa 1e       	adc	r15, r26
    2cde:	00 27       	eor	r16, r16
    2ce0:	cc 0c       	add	r12, r12
    2ce2:	dd 1c       	adc	r13, r13
    2ce4:	ee 1c       	adc	r14, r14
    2ce6:	ff 1c       	adc	r15, r15
    2ce8:	00 1f       	adc	r16, r16
    2cea:	cc 0c       	add	r12, r12
    2cec:	dd 1c       	adc	r13, r13
    2cee:	ee 1c       	adc	r14, r14
    2cf0:	ff 1c       	adc	r15, r15
    2cf2:	00 1f       	adc	r16, r16
    2cf4:	cc 0c       	add	r12, r12
    2cf6:	dd 1c       	adc	r13, r13
    2cf8:	ee 1c       	adc	r14, r14
    2cfa:	ff 1c       	adc	r15, r15
    2cfc:	00 1f       	adc	r16, r16
    2cfe:	0c 25       	eor	r16, r12
    2d00:	cf 2c       	mov	r12, r15
    2d02:	fe 2c       	mov	r15, r14
    2d04:	ed 2c       	mov	r14, r13
    2d06:	d0 2e       	mov	r13, r16
    2d08:	41 92       	st	Z+, r4
    2d0a:	51 92       	st	Z+, r5
    2d0c:	61 92       	st	Z+, r6
    2d0e:	71 92       	st	Z+, r7
    2d10:	c1 92       	st	Z+, r12
    2d12:	d1 92       	st	Z+, r13
    2d14:	e1 92       	st	Z+, r14
    2d16:	f1 92       	st	Z+, r15
    2d18:	81 92       	st	Z+, r8
    2d1a:	91 92       	st	Z+, r9
    2d1c:	a1 92       	st	Z+, r10
    2d1e:	b1 92       	st	Z+, r11
    2d20:	01 92       	st	Z+, r0
    2d22:	11 92       	st	Z+, r1
    2d24:	21 92       	st	Z+, r2
    2d26:	31 92       	st	Z+, r3
    2d28:	11 24       	eor	r1, r1
    2d2a:	df 91       	pop	r29
    2d2c:	cf 91       	pop	r28
    2d2e:	1f 91       	pop	r17
    2d30:	0f 91       	pop	r16
    2d32:	ff 90       	pop	r15
    2d34:	ef 90       	pop	r14
    2d36:	df 90       	pop	r13
    2d38:	cf 90       	pop	r12
    2d3a:	bf 90       	pop	r11
    2d3c:	af 90       	pop	r10
    2d3e:	9f 90       	pop	r9
    2d40:	8f 90       	pop	r8
    2d42:	7f 90       	pop	r7
    2d44:	6f 90       	pop	r6
    2d46:	5f 90       	pop	r5
    2d48:	4f 90       	pop	r4
    2d4a:	3f 90       	pop	r3
    2d4c:	2f 90       	pop	r2
    2d4e:	08 95       	ret

00002d50 <main>:
		
		

int main (void)
{
	board_init();
    2d50:	11 d0       	rcall	.+34     	; 0x2d74 <board_init>
	
	LEA_Keyschedule(pdRndKeys,pbKey,delta);
    2d52:	40 e0       	ldi	r20, 0x00	; 0
    2d54:	50 e2       	ldi	r21, 0x20	; 32
    2d56:	60 e1       	ldi	r22, 0x10	; 16
    2d58:	70 e2       	ldi	r23, 0x20	; 32
    2d5a:	80 e3       	ldi	r24, 0x30	; 48
    2d5c:	90 e2       	ldi	r25, 0x20	; 32
    2d5e:	0e 94 21 0a 	call	0x1442	; 0x1442 <LEA_Keyschedule>
	LEA_EncryptBlk(pdInOut,pdRndKeys);
    2d62:	60 e3       	ldi	r22, 0x30	; 48
    2d64:	70 e2       	ldi	r23, 0x20	; 32
    2d66:	80 e2       	ldi	r24, 0x20	; 32
    2d68:	90 e2       	ldi	r25, 0x20	; 32
    2d6a:	0e 94 21 01 	call	0x242	; 0x242 <LEA_EncryptBlk>
	// Insert application code here, after the board has been initialized.
}
    2d6e:	80 e0       	ldi	r24, 0x00	; 0
    2d70:	90 e0       	ldi	r25, 0x00	; 0
    2d72:	08 95       	ret

00002d74 <board_init>:
#include <compiler.h>
#include <conf_board.h>


void board_init(void)
{
    2d74:	08 95       	ret

00002d76 <_exit>:
    2d76:	f8 94       	cli

00002d78 <__stop_program>:
    2d78:	ff cf       	rjmp	.-2      	; 0x2d78 <__stop_program>
